---
triple:          'arm64-apple-darwin'
binary-path:     '/Users/esther/cyber-tarot/build/ios/Release-iphoneos/isar_flutter_libs/isar_flutter_libs.framework/isar_flutter_libs'
relocations:
  - { offsetInCU: 0x34, offset: 0x5B006, size: 0x8, addend: 0x0, symName: _isar_flutter_libsVersionString, symObjAddr: 0x0, symBinAddr: 0xD0D50, symSize: 0x0 }
  - { offsetInCU: 0x69, offset: 0x5B03B, size: 0x8, addend: 0x0, symName: _isar_flutter_libsVersionNumber, symObjAddr: 0x30, symBinAddr: 0xD0D80, symSize: 0x0 }
  - { offsetInCU: 0x27, offset: 0x5B078, size: 0x8, addend: 0x0, symName: '+[IsarFlutterLibsPlugin registerWithRegistrar:]', symObjAddr: 0x0, symBinAddr: 0x4000, symSize: 0xC }
  - { offsetInCU: 0x91, offset: 0x5B0E2, size: 0x8, addend: 0x0, symName: '+[IsarFlutterLibsPlugin registerWithRegistrar:]', symObjAddr: 0x0, symBinAddr: 0x4000, symSize: 0xC }
  - { offsetInCU: 0x27, offset: 0x5B176, size: 0x8, addend: 0x0, symName: '_$s17isar_flutter_libs26SwiftIsarFlutterLibsPluginC8register4withySo0fH9Registrar_p_tFZ', symObjAddr: 0x0, symBinAddr: 0x400C, symSize: 0x4 }
  - { offsetInCU: 0x67, offset: 0x5B1B6, size: 0x8, addend: 0x0, symName: '_$s17isar_flutter_libs26SwiftIsarFlutterLibsPluginC8register4withySo0fH9Registrar_p_tFZTo', symObjAddr: 0x4, symBinAddr: 0x4010, symSize: 0x4 }
  - { offsetInCU: 0xA3, offset: 0x5B1F2, size: 0x8, addend: 0x0, symName: '_$s17isar_flutter_libs26SwiftIsarFlutterLibsPluginC6handle_6resultySo0F10MethodCallC_yypSgctFTo', symObjAddr: 0xC4, symBinAddr: 0x40D0, symSize: 0x144 }
  - { offsetInCU: 0x11E, offset: 0x5B26D, size: 0x8, addend: 0x0, symName: '_$s17isar_flutter_libs26SwiftIsarFlutterLibsPluginCACycfcTo', symObjAddr: 0x280, symBinAddr: 0x428C, symSize: 0x3C }
  - { offsetInCU: 0x170, offset: 0x5B2BF, size: 0x8, addend: 0x0, symName: '_$sypSgWOh', symObjAddr: 0x44, symBinAddr: 0x4050, symSize: 0x40 }
  - { offsetInCU: 0x184, offset: 0x5B2D3, size: 0x8, addend: 0x0, symName: ___swift_instantiateConcreteTypeFromMangledName, symObjAddr: 0x84, symBinAddr: 0x4090, symSize: 0x40 }
  - { offsetInCU: 0x1A3, offset: 0x5B2F2, size: 0x8, addend: 0x0, symName: '_$s17isar_flutter_libs26SwiftIsarFlutterLibsPluginCMa', symObjAddr: 0x260, symBinAddr: 0x426C, symSize: 0x20 }
  - { offsetInCU: 0x1B7, offset: 0x5B306, size: 0x8, addend: 0x0, symName: '_$sypSgWOc', symObjAddr: 0x2EC, symBinAddr: 0x42F8, symSize: 0x48 }
  - { offsetInCU: 0x1CB, offset: 0x5B31A, size: 0x8, addend: 0x0, symName: ___swift_project_boxed_opaque_existential_0, symObjAddr: 0x334, symBinAddr: 0x4340, symSize: 0x24 }
  - { offsetInCU: 0x1DF, offset: 0x5B32E, size: 0x8, addend: 0x0, symName: ___swift_destroy_boxed_opaque_existential_0, symObjAddr: 0x358, symBinAddr: 0x4364, symSize: 0x20 }
  - { offsetInCU: 0x2CE, offset: 0x5B41D, size: 0x8, addend: 0x0, symName: '_$s17isar_flutter_libs26SwiftIsarFlutterLibsPluginC8register4withySo0fH9Registrar_p_tFZ', symObjAddr: 0x0, symBinAddr: 0x400C, symSize: 0x4 }
  - { offsetInCU: 0x307, offset: 0x5B456, size: 0x8, addend: 0x0, symName: '_$s17isar_flutter_libs26SwiftIsarFlutterLibsPluginC6handle_6resultySo0F10MethodCallC_yypSgctF', symObjAddr: 0x8, symBinAddr: 0x4014, symSize: 0x3C }
  - { offsetInCU: 0x36F, offset: 0x5B4BE, size: 0x8, addend: 0x0, symName: '_$s17isar_flutter_libs26SwiftIsarFlutterLibsPluginC28dummyMethodToEnforceBundlingyyF', symObjAddr: 0x208, symBinAddr: 0x4214, symSize: 0x8 }
  - { offsetInCU: 0x390, offset: 0x5B4DF, size: 0x8, addend: 0x0, symName: '_$s17isar_flutter_libs26SwiftIsarFlutterLibsPluginCACycfC', symObjAddr: 0x210, symBinAddr: 0x421C, symSize: 0x20 }
  - { offsetInCU: 0x3A4, offset: 0x5B4F3, size: 0x8, addend: 0x0, symName: '_$s17isar_flutter_libs26SwiftIsarFlutterLibsPluginCACycfc', symObjAddr: 0x230, symBinAddr: 0x423C, symSize: 0x30 }
  - { offsetInCU: 0x3D5, offset: 0x5B524, size: 0x8, addend: 0x0, symName: '_$s17isar_flutter_libs26SwiftIsarFlutterLibsPluginCfD', symObjAddr: 0x2BC, symBinAddr: 0x42C8, symSize: 0x30 }
  - { offsetInCU: 0x1F, offset: 0x5B571, size: 0x8, addend: 0x0, symName: __ZN5alloc7raw_vec17capacity_overflow17h14036a52ecb85501E, symObjAddr: 0x28A20, symBinAddr: 0x2C494, symSize: 0x3C }
  - { offsetInCU: 0x27, offset: 0x5B579, size: 0x8, addend: 0x0, symName: __ZN4core3ops8function6FnOnce9call_once17h4e2d2224d3f97e34E, symObjAddr: 0x2A348, symBinAddr: 0x2DCA0, symSize: 0x8 }
  - { offsetInCU: 0x7D, offset: 0x5B5CF, size: 0x8, addend: 0x0, symName: '__ZN50_$LT$$RF$mut$u20$W$u20$as$u20$core..fmt..Write$GT$9write_str17h54646ee59b193803E', symObjAddr: 0x293A4, symBinAddr: 0x2CD54, symSize: 0x78 }
  - { offsetInCU: 0x85, offset: 0x5B5D7, size: 0x8, addend: 0x0, symName: '__ZN50_$LT$$RF$mut$u20$W$u20$as$u20$core..fmt..Write$GT$10write_char17hb851756a89dd4b52E', symObjAddr: 0x2941C, symBinAddr: 0x2CDCC, symSize: 0x1C }
  - { offsetInCU: 0x1C3, offset: 0x5B715, size: 0x8, addend: 0x0, symName: '__ZN50_$LT$$RF$mut$u20$W$u20$as$u20$core..fmt..Write$GT$10write_char17hb851756a89dd4b52E', symObjAddr: 0x2941C, symBinAddr: 0x2CDCC, symSize: 0x1C }
  - { offsetInCU: 0x1D7, offset: 0x5B729, size: 0x8, addend: 0x0, symName: '__ZN50_$LT$$RF$mut$u20$W$u20$as$u20$core..fmt..Write$GT$10write_char17hb851756a89dd4b52E', symObjAddr: 0x2941C, symBinAddr: 0x2CDCC, symSize: 0x1C }
  - { offsetInCU: 0x1DF, offset: 0x5B731, size: 0x8, addend: 0x0, symName: '__ZN50_$LT$$RF$mut$u20$W$u20$as$u20$core..fmt..Write$GT$9write_fmt17h78dd875b0e0d8701E', symObjAddr: 0x29438, symBinAddr: 0x2CDE8, symSize: 0x44 }
  - { offsetInCU: 0x210, offset: 0x5B762, size: 0x8, addend: 0x0, symName: '__ZN50_$LT$$RF$mut$u20$W$u20$as$u20$core..fmt..Write$GT$9write_fmt17h78dd875b0e0d8701E', symObjAddr: 0x29438, symBinAddr: 0x2CDE8, symSize: 0x44 }
  - { offsetInCU: 0x218, offset: 0x5B76A, size: 0x8, addend: 0x0, symName: __ZN5alloc6string6String4push17h94e76d43dad8872fE, symObjAddr: 0x2947C, symBinAddr: 0x2CE2C, symSize: 0x140 }
  - { offsetInCU: 0x283, offset: 0x5B7D5, size: 0x8, addend: 0x0, symName: '__ZN42_$LT$$RF$T$u20$as$u20$core..fmt..Debug$GT$3fmt17ha8d131d170a34e4aE', symObjAddr: 0x29CEC, symBinAddr: 0x2D644, symSize: 0xB4 }
  - { offsetInCU: 0x28B, offset: 0x5B7DD, size: 0x8, addend: 0x0, symName: '__ZN42_$LT$$RF$T$u20$as$u20$core..fmt..Debug$GT$3fmt17h3fb9d63a99232992E', symObjAddr: 0x29DA0, symBinAddr: 0x2D6F8, symSize: 0x18C }
  - { offsetInCU: 0x41D, offset: 0x5B96F, size: 0x8, addend: 0x0, symName: '__ZN42_$LT$$RF$T$u20$as$u20$core..fmt..Debug$GT$3fmt17h3fb9d63a99232992E', symObjAddr: 0x29DA0, symBinAddr: 0x2D6F8, symSize: 0x18C }
  - { offsetInCU: 0x425, offset: 0x5B977, size: 0x8, addend: 0x0, symName: '__ZN42_$LT$$RF$T$u20$as$u20$core..fmt..Debug$GT$3fmt17hb56384eb955b9e5aE', symObjAddr: 0x29F2C, symBinAddr: 0x2D884, symSize: 0x23C }
  - { offsetInCU: 0x6FE, offset: 0x5BC50, size: 0x8, addend: 0x0, symName: '__ZN42_$LT$$RF$T$u20$as$u20$core..fmt..Debug$GT$3fmt17hb56384eb955b9e5aE', symObjAddr: 0x29F2C, symBinAddr: 0x2D884, symSize: 0x23C }
  - { offsetInCU: 0x706, offset: 0x5BC58, size: 0x8, addend: 0x0, symName: '__ZN42_$LT$$RF$T$u20$as$u20$core..fmt..Debug$GT$3fmt17h9ad6d5996eba16e0E', symObjAddr: 0x2A168, symBinAddr: 0x2DAC0, symSize: 0xF4 }
  - { offsetInCU: 0xACF, offset: 0x5C021, size: 0x8, addend: 0x0, symName: '__ZN42_$LT$$RF$T$u20$as$u20$core..fmt..Debug$GT$3fmt17h9ad6d5996eba16e0E', symObjAddr: 0x2A168, symBinAddr: 0x2DAC0, symSize: 0xF4 }
  - { offsetInCU: 0xAD7, offset: 0x5C029, size: 0x8, addend: 0x0, symName: '__ZN65_$LT$alloc..string..FromUtf8Error$u20$as$u20$core..fmt..Debug$GT$3fmt17had7e95c467caf620E', symObjAddr: 0x2A25C, symBinAddr: 0x2DBB4, symSize: 0xEC }
  - { offsetInCU: 0xDF8, offset: 0x5C34A, size: 0x8, addend: 0x0, symName: '__ZN4core3ptr42drop_in_place$LT$alloc..string..String$GT$17h433155ae2845cc04E', symObjAddr: 0x28B2C, symBinAddr: 0x2C4DC, symSize: 0x10 }
  - { offsetInCU: 0xE00, offset: 0x5C352, size: 0x8, addend: 0x0, symName: __ZN5alloc7raw_vec11finish_grow17h961b4df3573cd9c9E, symObjAddr: 0x28B3C, symBinAddr: 0x2C4EC, symSize: 0xE8 }
  - { offsetInCU: 0xE1D, offset: 0x5C36F, size: 0x8, addend: 0x0, symName: '__ZN4core3ptr42drop_in_place$LT$alloc..string..String$GT$17h433155ae2845cc04E', symObjAddr: 0x28B2C, symBinAddr: 0x2C4DC, symSize: 0x10 }
  - { offsetInCU: 0xE37, offset: 0x5C389, size: 0x8, addend: 0x0, symName: '__ZN4core3ptr42drop_in_place$LT$alloc..string..String$GT$17h433155ae2845cc04E', symObjAddr: 0x28B2C, symBinAddr: 0x2C4DC, symSize: 0x10 }
  - { offsetInCU: 0xE51, offset: 0x5C3A3, size: 0x8, addend: 0x0, symName: '__ZN4core3ptr42drop_in_place$LT$alloc..string..String$GT$17h433155ae2845cc04E', symObjAddr: 0x28B2C, symBinAddr: 0x2C4DC, symSize: 0x10 }
  - { offsetInCU: 0xE6B, offset: 0x5C3BD, size: 0x8, addend: 0x0, symName: '__ZN4core3ptr42drop_in_place$LT$alloc..string..String$GT$17h433155ae2845cc04E', symObjAddr: 0x28B2C, symBinAddr: 0x2C4DC, symSize: 0x10 }
  - { offsetInCU: 0xF05, offset: 0x5C457, size: 0x8, addend: 0x0, symName: '__ZN4core3ptr46drop_in_place$LT$alloc..vec..Vec$LT$u8$GT$$GT$17hf61df7aa77a4107dE', symObjAddr: 0x28ED8, symBinAddr: 0x2C888, symSize: 0x14 }
  - { offsetInCU: 0xF0D, offset: 0x5C45F, size: 0x8, addend: 0x0, symName: '__ZN5alloc7raw_vec19RawVec$LT$T$C$A$GT$16reserve_for_push17h8801f5b8dfd6940fE', symObjAddr: 0x28EEC, symBinAddr: 0x2C89C, symSize: 0xB8 }
  - { offsetInCU: 0x156F, offset: 0x5CAC1, size: 0x8, addend: 0x0, symName: __ZN5alloc7raw_vec17capacity_overflow17h14036a52ecb85501E, symObjAddr: 0x28A20, symBinAddr: 0x2C494, symSize: 0x3C }
  - { offsetInCU: 0x1577, offset: 0x5CAC9, size: 0x8, addend: 0x0, symName: __ZN5alloc5alloc18handle_alloc_error17h1ac343a79a3ef543E, symObjAddr: 0x28A5C, symBinAddr: 0xBC28C, symSize: 0xC }
  - { offsetInCU: 0x1664, offset: 0x5CBB6, size: 0x8, addend: 0x0, symName: '__ZN5alloc7raw_vec19RawVec$LT$T$C$A$GT$16reserve_for_push17h8801f5b8dfd6940fE', symObjAddr: 0x28EEC, symBinAddr: 0x2C89C, symSize: 0xB8 }
  - { offsetInCU: 0x166C, offset: 0x5CBBE, size: 0x8, addend: 0x0, symName: __ZN5alloc6string6String15from_utf8_lossy17h8f26b636096ad71bE, symObjAddr: 0x28FA4, symBinAddr: 0x2C954, symSize: 0x230 }
  - { offsetInCU: 0x1870, offset: 0x5CDC2, size: 0x8, addend: 0x0, symName: '__ZN5alloc7raw_vec19RawVec$LT$T$C$A$GT$7reserve21do_reserve_and_handle17hddc117c03025eb0fE', symObjAddr: 0x28A74, symBinAddr: 0xBC298, symSize: 0xB8 }
  - { offsetInCU: 0x1878, offset: 0x5CDCA, size: 0x8, addend: 0x0, symName: '__ZN4core3ptr42drop_in_place$LT$alloc..string..String$GT$17h433155ae2845cc04E', symObjAddr: 0x28B2C, symBinAddr: 0x2C4DC, symSize: 0x10 }
  - { offsetInCU: 0x1A06, offset: 0x5CF58, size: 0x8, addend: 0x0, symName: __ZN5alloc7raw_vec11finish_grow17h961b4df3573cd9c9E, symObjAddr: 0x28B3C, symBinAddr: 0x2C4EC, symSize: 0xE8 }
  - { offsetInCU: 0x1A0E, offset: 0x5CF60, size: 0x8, addend: 0x0, symName: '__ZN72_$LT$$RF$str$u20$as$u20$alloc..ffi..c_str..CString..new..SpecNewImpl$GT$13spec_new_impl17h90c702b50b077f16E', symObjAddr: 0x28C24, symBinAddr: 0x2C5D4, symSize: 0x160 }
  - { offsetInCU: 0x1B92, offset: 0x5D0E4, size: 0x8, addend: 0x0, symName: __ZN5alloc5alloc18handle_alloc_error17h1ac343a79a3ef543E, symObjAddr: 0x28A5C, symBinAddr: 0xBC28C, symSize: 0xC }
  - { offsetInCU: 0x1B9A, offset: 0x5D0EC, size: 0x8, addend: 0x0, symName: __ZN5alloc5alloc18handle_alloc_error8rt_error17hbed7c11ee02ad651E, symObjAddr: 0x28A68, symBinAddr: 0x2C4D0, symSize: 0xC }
  - { offsetInCU: 0x1BBA, offset: 0x5D10C, size: 0x8, addend: 0x0, symName: __ZN5alloc5alloc18handle_alloc_error8rt_error17hbed7c11ee02ad651E, symObjAddr: 0x28A68, symBinAddr: 0x2C4D0, symSize: 0xC }
  - { offsetInCU: 0x1BC2, offset: 0x5D114, size: 0x8, addend: 0x0, symName: '__ZN5alloc7raw_vec19RawVec$LT$T$C$A$GT$7reserve21do_reserve_and_handle17hddc117c03025eb0fE', symObjAddr: 0x28A74, symBinAddr: 0xBC298, symSize: 0xB8 }
  - { offsetInCU: 0x1CAC, offset: 0x5D1FE, size: 0x8, addend: 0x0, symName: '__ZN72_$LT$$RF$str$u20$as$u20$alloc..ffi..c_str..CString..new..SpecNewImpl$GT$13spec_new_impl17h90c702b50b077f16E', symObjAddr: 0x28C24, symBinAddr: 0x2C5D4, symSize: 0x160 }
  - { offsetInCU: 0x1CB4, offset: 0x5D206, size: 0x8, addend: 0x0, symName: __ZN5alloc3ffi5c_str7CString19_from_vec_unchecked17h9beb73f705385ee9E, symObjAddr: 0x28D84, symBinAddr: 0x2C734, symSize: 0x154 }
  - { offsetInCU: 0x1EDB, offset: 0x5D42D, size: 0x8, addend: 0x0, symName: __ZN5alloc3ffi5c_str7CString19_from_vec_unchecked17h9beb73f705385ee9E, symObjAddr: 0x28D84, symBinAddr: 0x2C734, symSize: 0x154 }
  - { offsetInCU: 0x1EE3, offset: 0x5D435, size: 0x8, addend: 0x0, symName: '__ZN4core3ptr46drop_in_place$LT$alloc..vec..Vec$LT$u8$GT$$GT$17hf61df7aa77a4107dE', symObjAddr: 0x28ED8, symBinAddr: 0x2C888, symSize: 0x14 }
  - { offsetInCU: 0x21D4, offset: 0x5D726, size: 0x8, addend: 0x0, symName: '__ZN64_$LT$alloc..ffi..c_str..NulError$u20$as$u20$core..fmt..Debug$GT$3fmt17hacdb411549861e22E', symObjAddr: 0x29BFC, symBinAddr: 0x2D554, symSize: 0xF0 }
  - { offsetInCU: 0x21DC, offset: 0x5D72E, size: 0x8, addend: 0x0, symName: '__ZN42_$LT$$RF$T$u20$as$u20$core..fmt..Debug$GT$3fmt17ha8d131d170a34e4aE', symObjAddr: 0x29CEC, symBinAddr: 0x2D644, symSize: 0xB4 }
  - { offsetInCU: 0x247A, offset: 0x5D9CC, size: 0x8, addend: 0x0, symName: '__ZN5alloc3vec16Vec$LT$T$C$A$GT$6remove13assert_failed17hcc00c6569e144645E', symObjAddr: 0x29BA4, symBinAddr: 0xBC350, symSize: 0x58 }
  - { offsetInCU: 0x2482, offset: 0x5D9D4, size: 0x8, addend: 0x0, symName: '__ZN64_$LT$alloc..ffi..c_str..NulError$u20$as$u20$core..fmt..Debug$GT$3fmt17hacdb411549861e22E', symObjAddr: 0x29BFC, symBinAddr: 0x2D554, symSize: 0xF0 }
  - { offsetInCU: 0x2527, offset: 0x5DA79, size: 0x8, addend: 0x0, symName: __ZN5alloc6string6String15from_utf8_lossy17h8f26b636096ad71bE, symObjAddr: 0x28FA4, symBinAddr: 0x2C954, symSize: 0x230 }
  - { offsetInCU: 0x252F, offset: 0x5DA81, size: 0x8, addend: 0x0, symName: __ZN5alloc3fmt6format12format_inner17h778575d57c7c0b5fE, symObjAddr: 0x291D4, symBinAddr: 0x2CB84, symSize: 0x1D0 }
  - { offsetInCU: 0x2B2A, offset: 0x5E07C, size: 0x8, addend: 0x0, symName: __ZN5alloc6string6String4push17h94e76d43dad8872fE, symObjAddr: 0x2947C, symBinAddr: 0x2CE2C, symSize: 0x140 }
  - { offsetInCU: 0x2B32, offset: 0x5E084, size: 0x8, addend: 0x0, symName: '__ZN5alloc3str21_$LT$impl$u20$str$GT$12to_lowercase17h58e502d9abf16624E', symObjAddr: 0x295BC, symBinAddr: 0x2CF6C, symSize: 0x5E8 }
  - { offsetInCU: 0x2D47, offset: 0x5E299, size: 0x8, addend: 0x0, symName: '__ZN5alloc3str21_$LT$impl$u20$str$GT$12to_lowercase17h58e502d9abf16624E', symObjAddr: 0x295BC, symBinAddr: 0x2CF6C, symSize: 0x5E8 }
  - { offsetInCU: 0x2DB4, offset: 0x5E306, size: 0x8, addend: 0x0, symName: '__ZN65_$LT$alloc..string..FromUtf8Error$u20$as$u20$core..fmt..Debug$GT$3fmt17had7e95c467caf620E', symObjAddr: 0x2A25C, symBinAddr: 0x2DBB4, symSize: 0xEC }
  - { offsetInCU: 0x2DBC, offset: 0x5E30E, size: 0x8, addend: 0x0, symName: __ZN4core3ops8function6FnOnce9call_once17h4e2d2224d3f97e34E, symObjAddr: 0x2A348, symBinAddr: 0x2DCA0, symSize: 0x8 }
  - { offsetInCU: 0x2EE0, offset: 0x5E432, size: 0x8, addend: 0x0, symName: __ZN5alloc3fmt6format12format_inner17h778575d57c7c0b5fE, symObjAddr: 0x291D4, symBinAddr: 0x2CB84, symSize: 0x1D0 }
  - { offsetInCU: 0x2EE8, offset: 0x5E43A, size: 0x8, addend: 0x0, symName: '__ZN50_$LT$$RF$mut$u20$W$u20$as$u20$core..fmt..Write$GT$9write_str17h54646ee59b193803E', symObjAddr: 0x293A4, symBinAddr: 0x2CD54, symSize: 0x78 }
  - { offsetInCU: 0x31D4, offset: 0x5E726, size: 0x8, addend: 0x0, symName: '__ZN5alloc3str21_$LT$impl$u20$str$GT$12to_lowercase17h58e502d9abf16624E', symObjAddr: 0x295BC, symBinAddr: 0x2CF6C, symSize: 0x5E8 }
  - { offsetInCU: 0x31DC, offset: 0x5E72E, size: 0x8, addend: 0x0, symName: '__ZN5alloc3vec16Vec$LT$T$C$A$GT$6remove13assert_failed17hcc00c6569e144645E', symObjAddr: 0x29BA4, symBinAddr: 0xBC350, symSize: 0x58 }
  - { offsetInCU: 0x1F, offset: 0x5F1BB, size: 0x8, addend: 0x0, symName: __ZN3std6thread5local2os13destroy_value17h0eab3f265bf3e4cdE, symObjAddr: 0x77A84, symBinAddr: 0x787FC, symSize: 0x64 }
  - { offsetInCU: 0x27, offset: 0x5F1C3, size: 0x8, addend: 0x0, symName: '__ZN5alloc4sync12Arc$LT$T$GT$9drop_slow17h05c9d7509819ff44E', symObjAddr: 0x973E4, symBinAddr: 0x96280, symSize: 0x98 }
  - { offsetInCU: 0x21A, offset: 0x5F3B6, size: 0x8, addend: 0x0, symName: __ZN3std3sys4unix14abort_internal17h9de29c7aa9c1bfbfE, symObjAddr: 0x78070, symBinAddr: 0x78DE8, symSize: 0xC }
  - { offsetInCU: 0x222, offset: 0x5F3BE, size: 0x8, addend: 0x0, symName: __ZN5alloc5alloc8box_free17h151243767fe8fc14E, symObjAddr: 0x7807C, symBinAddr: 0x78DF4, symSize: 0xC }
  - { offsetInCU: 0x308, offset: 0x5F4A4, size: 0x8, addend: 0x0, symName: '__ZN64_$LT$std..sys..unix..stdio..Stderr$u20$as$u20$std..io..Write$GT$5write17h7da2a9305ce399d1E', symObjAddr: 0x959B8, symBinAddr: 0x94B00, symSize: 0x60 }
  - { offsetInCU: 0x310, offset: 0x5F4AC, size: 0x8, addend: 0x0, symName: '__ZN64_$LT$std..sys..unix..stdio..Stderr$u20$as$u20$std..io..Write$GT$14write_vectored17h2f7c56f69819ef2fE', symObjAddr: 0x95A18, symBinAddr: 0x94B60, symSize: 0x60 }
  - { offsetInCU: 0x41B, offset: 0x5F5B7, size: 0x8, addend: 0x0, symName: '__ZN64_$LT$std..sys..unix..stdio..Stderr$u20$as$u20$std..io..Write$GT$14write_vectored17h2f7c56f69819ef2fE', symObjAddr: 0x95A18, symBinAddr: 0x94B60, symSize: 0x60 }
  - { offsetInCU: 0x423, offset: 0x5F5BF, size: 0x8, addend: 0x0, symName: '__ZN64_$LT$std..sys..unix..stdio..Stderr$u20$as$u20$std..io..Write$GT$17is_write_vectored17hdc6ce72fbdac97d1E', symObjAddr: 0x95A78, symBinAddr: 0x94BC0, symSize: 0x8 }
  - { offsetInCU: 0x52E, offset: 0x5F6CA, size: 0x8, addend: 0x0, symName: '__ZN64_$LT$std..sys..unix..stdio..Stderr$u20$as$u20$std..io..Write$GT$17is_write_vectored17hdc6ce72fbdac97d1E', symObjAddr: 0x95A78, symBinAddr: 0x94BC0, symSize: 0x8 }
  - { offsetInCU: 0x536, offset: 0x5F6D2, size: 0x8, addend: 0x0, symName: '__ZN64_$LT$std..sys..unix..stdio..Stderr$u20$as$u20$std..io..Write$GT$5flush17hd3b9dc750c9791eaE', symObjAddr: 0x95A80, symBinAddr: 0x94BC8, symSize: 0x8 }
  - { offsetInCU: 0x54E, offset: 0x5F6EA, size: 0x8, addend: 0x0, symName: '__ZN64_$LT$std..sys..unix..stdio..Stderr$u20$as$u20$std..io..Write$GT$5flush17hd3b9dc750c9791eaE', symObjAddr: 0x95A80, symBinAddr: 0x94BC8, symSize: 0x8 }
  - { offsetInCU: 0x556, offset: 0x5F6F2, size: 0x8, addend: 0x0, symName: __ZN3std2io5Write9write_all17hf0ca1187abf29de0E, symObjAddr: 0x95A88, symBinAddr: 0x94BD0, symSize: 0xA8 }
  - { offsetInCU: 0x60C, offset: 0x5F7A8, size: 0x8, addend: 0x0, symName: '__ZN108_$LT$std..sys..unix..locks..pthread_mutex..AllocatedMutex$u20$as$u20$std..sys_common..lazy_box..LazyInit$GT$4init17hdd78762cc2a3de7fE', symObjAddr: 0x790C8, symBinAddr: 0x79D94, symSize: 0x1AC }
  - { offsetInCU: 0x614, offset: 0x5F7B0, size: 0x8, addend: 0x0, symName: '__ZN4core3ptr73drop_in_place$LT$std..sys..unix..locks..pthread_mutex..AllocatedMutex$GT$17h9df20e29dea15b33E', symObjAddr: 0x79274, symBinAddr: 0x79F40, symSize: 0x4 }
  - { offsetInCU: 0x846, offset: 0x5F9E2, size: 0x8, addend: 0x0, symName: __ZN3std3sys4unix5locks14pthread_rwlock6RwLock4read17hf2fc1b59694fa856E, symObjAddr: 0x90BA4, symBinAddr: 0x90160, symSize: 0x128 }
  - { offsetInCU: 0x84E, offset: 0x5F9EA, size: 0x8, addend: 0x0, symName: '__ZN3std10sys_common8lazy_box16LazyBox$LT$T$GT$10initialize17h0abf197966e094cbE', symObjAddr: 0x90CCC, symBinAddr: 0xC0744, symSize: 0x120 }
  - { offsetInCU: 0xA3A, offset: 0x5FBD6, size: 0x8, addend: 0x0, symName: __ZN3std3sys4unix6os_str3Buf11into_string17h1b7a070c36b36de9E, symObjAddr: 0x7D428, symBinAddr: 0x7DED8, symSize: 0xCC }
  - { offsetInCU: 0xA42, offset: 0x5FBDE, size: 0x8, addend: 0x0, symName: __ZN3std4path4Path5_join17h4b10e4b2905f9ca0E, symObjAddr: 0x7D4F4, symBinAddr: 0x7DFA4, symSize: 0x1A0 }
  - { offsetInCU: 0xB2C, offset: 0x5FCC8, size: 0x8, addend: 0x0, symName: __ZN3std3sys4unix2fs4File6open_c17h759831b8cebd7981E, symObjAddr: 0x90758, symBinAddr: 0x8FD14, symSize: 0x178 }
  - { offsetInCU: 0xB34, offset: 0x5FCD0, size: 0x8, addend: 0x0, symName: '__ZN4core3ptr111drop_in_place$LT$alloc..raw_vec..RawVec$LT$$LP$usize$C$std..backtrace_rs..symbolize..gimli..Mapping$RP$$GT$$GT$17h6bc40d0733aaabacE', symObjAddr: 0x908D0, symBinAddr: 0x8FE8C, symSize: 0x10 }
  - { offsetInCU: 0xCA5, offset: 0x5FE41, size: 0x8, addend: 0x0, symName: __ZN3std3sys4unix2fs7readdir17hc3ac4bc4dcfa4f8fE, symObjAddr: 0x7D030, symBinAddr: 0x7DAE0, symSize: 0x1EC }
  - { offsetInCU: 0xCAD, offset: 0x5FE49, size: 0x8, addend: 0x0, symName: '__ZN86_$LT$std..sys..unix..fs..ReadDir$u20$as$u20$core..iter..traits..iterator..Iterator$GT$4next17ha88c7e00a8bfccd9E', symObjAddr: 0x7D21C, symBinAddr: 0x7DCCC, symSize: 0x140 }
  - { offsetInCU: 0x1098, offset: 0x60234, size: 0x8, addend: 0x0, symName: '__ZN86_$LT$std..sys..unix..fs..ReadDir$u20$as$u20$core..iter..traits..iterator..Iterator$GT$4next17ha88c7e00a8bfccd9E', symObjAddr: 0x7D21C, symBinAddr: 0x7DCCC, symSize: 0x140 }
  - { offsetInCU: 0x10A0, offset: 0x6023C, size: 0x8, addend: 0x0, symName: '__ZN4core3ptr37drop_in_place$LT$std..fs..ReadDir$GT$17h6cf69937c5e4a77dE', symObjAddr: 0x7D35C, symBinAddr: 0x7DE0C, symSize: 0x28 }
  - { offsetInCU: 0x12E2, offset: 0x6047E, size: 0x8, addend: 0x0, symName: '__ZN65_$LT$std..sys..unix..fs..Dir$u20$as$u20$core..ops..drop..Drop$GT$4drop17hd11880211b9cefd2E', symObjAddr: 0x8797C, symBinAddr: 0x8834C, symSize: 0xA4 }
  - { offsetInCU: 0x12EA, offset: 0x60486, size: 0x8, addend: 0x0, symName: __ZN3std3sys6common14small_c_string24run_with_cstr_allocating17h6ba733aa1758c43fE, symObjAddr: 0x87A20, symBinAddr: 0xBF330, symSize: 0x8C }
  - { offsetInCU: 0x1421, offset: 0x605BD, size: 0x8, addend: 0x0, symName: __ZN3std3sys4unix2fs6unlink17hf71c557fc64c416cE, symObjAddr: 0x96E34, symBinAddr: 0x95F7C, symSize: 0xE8 }
  - { offsetInCU: 0x1429, offset: 0x605C5, size: 0x8, addend: 0x0, symName: __ZN3std3sys6common14small_c_string24run_with_cstr_allocating17hdc8fb0ec08addd0cE, symObjAddr: 0x96F1C, symBinAddr: 0xC0BB8, symSize: 0x9C }
  - { offsetInCU: 0x15D4, offset: 0x60770, size: 0x8, addend: 0x0, symName: __ZN3std3sys4unix2fs6rename17h1a1c8b4862cb2a2eE, symObjAddr: 0x96FB8, symBinAddr: 0x96064, symSize: 0x194 }
  - { offsetInCU: 0x15DC, offset: 0x60778, size: 0x8, addend: 0x0, symName: __ZN3std3sys6common14small_c_string24run_with_cstr_allocating17ha44f774cf4bdaabbE, symObjAddr: 0x9714C, symBinAddr: 0xC0C54, symSize: 0x16C }
  - { offsetInCU: 0x18C1, offset: 0x60A5D, size: 0x8, addend: 0x0, symName: __ZN3std3sys4unix6thread6Thread3new12thread_start17hffff04f13987e13bE, symObjAddr: 0x97360, symBinAddr: 0x961FC, symSize: 0x68 }
  - { offsetInCU: 0x18C9, offset: 0x60A65, size: 0x8, addend: 0x0, symName: __ZN3std5alloc8rust_oom17hfb989741db960262E, symObjAddr: 0x973C8, symBinAddr: 0x96264, symSize: 0x10 }
  - { offsetInCU: 0x1A64, offset: 0x60C00, size: 0x8, addend: 0x0, symName: __ZN3std3sys6common14small_c_string24run_with_cstr_allocating17h6ba733aa1758c43fE, symObjAddr: 0x87A20, symBinAddr: 0xBF330, symSize: 0x8C }
  - { offsetInCU: 0x1A6C, offset: 0x60C08, size: 0x8, addend: 0x0, symName: '__ZN4core3ptr82drop_in_place$LT$alloc..sync..ArcInner$LT$std..sys..unix..fs..InnerReadDir$GT$$GT$17h00f963c14d25e7d0E', symObjAddr: 0x87AAC, symBinAddr: 0x883F0, symSize: 0x50 }
  - { offsetInCU: 0x1B61, offset: 0x60CFD, size: 0x8, addend: 0x0, symName: '__ZN4core3ptr82drop_in_place$LT$alloc..sync..ArcInner$LT$std..sys..unix..fs..InnerReadDir$GT$$GT$17h00f963c14d25e7d0E', symObjAddr: 0x87AAC, symBinAddr: 0x883F0, symSize: 0x50 }
  - { offsetInCU: 0x1B94, offset: 0x60D30, size: 0x8, addend: 0x0, symName: '__ZN4core3ptr82drop_in_place$LT$alloc..sync..ArcInner$LT$std..sys..unix..fs..InnerReadDir$GT$$GT$17h00f963c14d25e7d0E', symObjAddr: 0x87AAC, symBinAddr: 0x883F0, symSize: 0x50 }
  - { offsetInCU: 0x1BAE, offset: 0x60D4A, size: 0x8, addend: 0x0, symName: '__ZN4core3ptr82drop_in_place$LT$alloc..sync..ArcInner$LT$std..sys..unix..fs..InnerReadDir$GT$$GT$17h00f963c14d25e7d0E', symObjAddr: 0x87AAC, symBinAddr: 0x883F0, symSize: 0x50 }
  - { offsetInCU: 0x1BC8, offset: 0x60D64, size: 0x8, addend: 0x0, symName: '__ZN4core3ptr82drop_in_place$LT$alloc..sync..ArcInner$LT$std..sys..unix..fs..InnerReadDir$GT$$GT$17h00f963c14d25e7d0E', symObjAddr: 0x87AAC, symBinAddr: 0x883F0, symSize: 0x50 }
  - { offsetInCU: 0x1BDA, offset: 0x60D76, size: 0x8, addend: 0x0, symName: __ZN3std3sys6common14small_c_string24run_with_cstr_allocating17h7aa08aebffe8a7bbE, symObjAddr: 0x906C8, symBinAddr: 0xC06B4, symSize: 0x90 }
  - { offsetInCU: 0x1BE2, offset: 0x60D7E, size: 0x8, addend: 0x0, symName: __ZN3std3sys4unix2fs4File6open_c17h759831b8cebd7981E, symObjAddr: 0x90758, symBinAddr: 0x8FD14, symSize: 0x178 }
  - { offsetInCU: 0x1D5E, offset: 0x60EFA, size: 0x8, addend: 0x0, symName: __ZN3std3sys6common14small_c_string24run_with_cstr_allocating17hdb46a4abb7d73f60E, symObjAddr: 0x91938, symBinAddr: 0xC0864, symSize: 0x104 }
  - { offsetInCU: 0x1D66, offset: 0x60F02, size: 0x8, addend: 0x0, symName: __ZN3std2io5Write18write_all_vectored17hcb85dd2df0d0b0c6E, symObjAddr: 0x91A3C, symBinAddr: 0x90DD4, symSize: 0x1E0 }
  - { offsetInCU: 0x1F71, offset: 0x6110D, size: 0x8, addend: 0x0, symName: __ZN3std3sys6common14small_c_string24run_with_cstr_allocating17hdc8fb0ec08addd0cE, symObjAddr: 0x96F1C, symBinAddr: 0xC0BB8, symSize: 0x9C }
  - { offsetInCU: 0x1F79, offset: 0x61115, size: 0x8, addend: 0x0, symName: __ZN3std3sys4unix2fs6rename17h1a1c8b4862cb2a2eE, symObjAddr: 0x96FB8, symBinAddr: 0x96064, symSize: 0x194 }
  - { offsetInCU: 0x2153, offset: 0x612EF, size: 0x8, addend: 0x0, symName: __ZN3std3sys6common14small_c_string24run_with_cstr_allocating17ha44f774cf4bdaabbE, symObjAddr: 0x9714C, symBinAddr: 0xC0C54, symSize: 0x16C }
  - { offsetInCU: 0x215B, offset: 0x612F7, size: 0x8, addend: 0x0, symName: __ZN3std3sys6common14small_c_string24run_with_cstr_allocating17h4f20ce6def656b7bE, symObjAddr: 0x972B8, symBinAddr: 0xC0DC0, symSize: 0xA4 }
  - { offsetInCU: 0x2485, offset: 0x61621, size: 0x8, addend: 0x0, symName: __ZN3std3sys6common14small_c_string24run_with_cstr_allocating17h4f20ce6def656b7bE, symObjAddr: 0x972B8, symBinAddr: 0xC0DC0, symSize: 0xA4 }
  - { offsetInCU: 0x248D, offset: 0x61629, size: 0x8, addend: 0x0, symName: __ZN5alloc5alloc8box_free17h22c467aa496fa3deE, symObjAddr: 0x9735C, symBinAddr: 0x961F8, symSize: 0x4 }
  - { offsetInCU: 0x2663, offset: 0x617FF, size: 0x8, addend: 0x0, symName: __ZN3std5alloc24default_alloc_error_hook17h79cde74585374cbeE, symObjAddr: 0x95694, symBinAddr: 0x947DC, symSize: 0xD4 }
  - { offsetInCU: 0x266B, offset: 0x61807, size: 0x8, addend: 0x0, symName: '__ZN4core3ptr68drop_in_place$LT$core..option..Option$LT$std..thread..Thread$GT$$GT$17h668d94e44987ed1aE', symObjAddr: 0x95768, symBinAddr: 0x948B0, symSize: 0x2C }
  - { offsetInCU: 0x281F, offset: 0x619BB, size: 0x8, addend: 0x0, symName: __ZN3std5alloc8rust_oom17hfb989741db960262E, symObjAddr: 0x973C8, symBinAddr: 0x96264, symSize: 0x10 }
  - { offsetInCU: 0x2827, offset: 0x619C3, size: 0x8, addend: 0x0, symName: ___rg_oom, symObjAddr: 0x973D8, symBinAddr: 0x96274, symSize: 0xC }
  - { offsetInCU: 0x2847, offset: 0x619E3, size: 0x8, addend: 0x0, symName: ___rg_oom, symObjAddr: 0x973D8, symBinAddr: 0x96274, symSize: 0xC }
  - { offsetInCU: 0x284F, offset: 0x619EB, size: 0x8, addend: 0x0, symName: '__ZN5alloc4sync12Arc$LT$T$GT$9drop_slow17h05c9d7509819ff44E', symObjAddr: 0x973E4, symBinAddr: 0x96280, symSize: 0x98 }
  - { offsetInCU: 0x28DA, offset: 0x61A76, size: 0x8, addend: 0x0, symName: __ZN3std6thread5local2os13destroy_value17h0eab3f265bf3e4cdE, symObjAddr: 0x77A84, symBinAddr: 0x787FC, symSize: 0x64 }
  - { offsetInCU: 0x28E2, offset: 0x61A7E, size: 0x8, addend: 0x0, symName: _rust_eh_personality, symObjAddr: 0x77AE8, symBinAddr: 0x78860, symSize: 0x2DC }
  - { offsetInCU: 0x2906, offset: 0x61AA2, size: 0x8, addend: 0x0, symName: _rust_eh_personality, symObjAddr: 0x77AE8, symBinAddr: 0x78860, symSize: 0x2DC }
  - { offsetInCU: 0x2920, offset: 0x61ABC, size: 0x8, addend: 0x0, symName: _rust_eh_personality, symObjAddr: 0x77AE8, symBinAddr: 0x78860, symSize: 0x2DC }
  - { offsetInCU: 0x2BB0, offset: 0x61D4C, size: 0x8, addend: 0x0, symName: __ZN3std6thread5local2os13destroy_value17h0a681db880fc48c2E, symObjAddr: 0x785D0, symBinAddr: 0x79348, symSize: 0x64 }
  - { offsetInCU: 0x2BB8, offset: 0x61D54, size: 0x8, addend: 0x0, symName: '__ZN4core3ptr112drop_in_place$LT$alloc..boxed..Box$LT$std..thread..local..os..Value$LT$core..cell..Cell$LT$usize$GT$$GT$$GT$$GT$17hb940828ac14f5d55E', symObjAddr: 0x78634, symBinAddr: 0x793AC, symSize: 0x4 }
  - { offsetInCU: 0x2BDC, offset: 0x61D78, size: 0x8, addend: 0x0, symName: '__ZN4core3ptr112drop_in_place$LT$alloc..boxed..Box$LT$std..thread..local..os..Value$LT$core..cell..Cell$LT$usize$GT$$GT$$GT$$GT$17hb940828ac14f5d55E', symObjAddr: 0x78634, symBinAddr: 0x793AC, symSize: 0x4 }
  - { offsetInCU: 0x2BF6, offset: 0x61D92, size: 0x8, addend: 0x0, symName: '__ZN4core3ptr112drop_in_place$LT$alloc..boxed..Box$LT$std..thread..local..os..Value$LT$core..cell..Cell$LT$usize$GT$$GT$$GT$$GT$17hb940828ac14f5d55E', symObjAddr: 0x78634, symBinAddr: 0x793AC, symSize: 0x4 }
  - { offsetInCU: 0x2DFF, offset: 0x61F9B, size: 0x8, addend: 0x0, symName: __ZN3std6thread5local2os13destroy_value17haf04799ee17b1e1cE, symObjAddr: 0x78944, symBinAddr: 0x7967C, symSize: 0xA0 }
  - { offsetInCU: 0x2E07, offset: 0x61FA3, size: 0x8, addend: 0x0, symName: '__ZN5alloc4sync12Arc$LT$T$GT$9drop_slow17h831aeecc4e9da44dE', symObjAddr: 0x789E4, symBinAddr: 0x7971C, symSize: 0x74 }
  - { offsetInCU: 0x2E2B, offset: 0x61FC7, size: 0x8, addend: 0x0, symName: '__ZN5alloc4sync12Arc$LT$T$GT$9drop_slow17h831aeecc4e9da44dE', symObjAddr: 0x789E4, symBinAddr: 0x7971C, symSize: 0x74 }
  - { offsetInCU: 0x2E45, offset: 0x61FE1, size: 0x8, addend: 0x0, symName: '__ZN5alloc4sync12Arc$LT$T$GT$9drop_slow17h831aeecc4e9da44dE', symObjAddr: 0x789E4, symBinAddr: 0x7971C, symSize: 0x74 }
  - { offsetInCU: 0x31E0, offset: 0x6237C, size: 0x8, addend: 0x0, symName: __ZN3std6thread5local2os13destroy_value17h6763b854a3a3cb9dE, symObjAddr: 0x78B20, symBinAddr: 0x79858, symSize: 0x64 }
  - { offsetInCU: 0x31E8, offset: 0x62384, size: 0x8, addend: 0x0, symName: __ZN3std6thread6Thread3new17h13c5d7738340f03fE, symObjAddr: 0x78B84, symBinAddr: 0x798BC, symSize: 0x134 }
  - { offsetInCU: 0x320C, offset: 0x623A8, size: 0x8, addend: 0x0, symName: __ZN3std6thread6Thread3new17h13c5d7738340f03fE, symObjAddr: 0x78B84, symBinAddr: 0x798BC, symSize: 0x134 }
  - { offsetInCU: 0x3226, offset: 0x623C2, size: 0x8, addend: 0x0, symName: __ZN3std6thread6Thread3new17h13c5d7738340f03fE, symObjAddr: 0x78B84, symBinAddr: 0x798BC, symSize: 0x134 }
  - { offsetInCU: 0x342F, offset: 0x625CB, size: 0x8, addend: 0x0, symName: __ZN3std6thread5local2os13destroy_value17hd255a2c132d9c538E, symObjAddr: 0x78F58, symBinAddr: 0x79C90, symSize: 0xA8 }
  - { offsetInCU: 0x3437, offset: 0x625D3, size: 0x8, addend: 0x0, symName: '__ZN4core3ptr178drop_in_place$LT$alloc..boxed..Box$LT$std..thread..local..os..Value$LT$core..cell..RefCell$LT$core..option..Option$LT$std..sys_common..thread_info..ThreadInfo$GT$$GT$$GT$$GT$$GT$17ha74319de64ca7736E', symObjAddr: 0x79000, symBinAddr: 0x79D38, symSize: 0x5C }
  - { offsetInCU: 0x345B, offset: 0x625F7, size: 0x8, addend: 0x0, symName: '__ZN4core3ptr178drop_in_place$LT$alloc..boxed..Box$LT$std..thread..local..os..Value$LT$core..cell..RefCell$LT$core..option..Option$LT$std..sys_common..thread_info..ThreadInfo$GT$$GT$$GT$$GT$$GT$17ha74319de64ca7736E', symObjAddr: 0x79000, symBinAddr: 0x79D38, symSize: 0x5C }
  - { offsetInCU: 0x3475, offset: 0x62611, size: 0x8, addend: 0x0, symName: '__ZN4core3ptr178drop_in_place$LT$alloc..boxed..Box$LT$std..thread..local..os..Value$LT$core..cell..RefCell$LT$core..option..Option$LT$std..sys_common..thread_info..ThreadInfo$GT$$GT$$GT$$GT$$GT$17ha74319de64ca7736E', symObjAddr: 0x79000, symBinAddr: 0x79D38, symSize: 0x5C }
  - { offsetInCU: 0x387B, offset: 0x62A17, size: 0x8, addend: 0x0, symName: __ZN3std6thread5local2os13destroy_value17he3ab93a411a345e6E, symObjAddr: 0x91E08, symBinAddr: 0x911A0, symSize: 0xA0 }
  - { offsetInCU: 0x3883, offset: 0x62A1F, size: 0x8, addend: 0x0, symName: '__ZN4core3ptr215drop_in_place$LT$alloc..boxed..Box$LT$std..thread..local..os..Value$LT$core..cell..Cell$LT$core..option..Option$LT$alloc..sync..Arc$LT$std..sync..mutex..Mutex$LT$alloc..vec..Vec$LT$u8$GT$$GT$$GT$$GT$$GT$$GT$$GT$$GT$17h3af527a13eea77f9E', symObjAddr: 0x91EA8, symBinAddr: 0x91240, symSize: 0x54 }
  - { offsetInCU: 0x38A7, offset: 0x62A43, size: 0x8, addend: 0x0, symName: '__ZN4core3ptr215drop_in_place$LT$alloc..boxed..Box$LT$std..thread..local..os..Value$LT$core..cell..Cell$LT$core..option..Option$LT$alloc..sync..Arc$LT$std..sync..mutex..Mutex$LT$alloc..vec..Vec$LT$u8$GT$$GT$$GT$$GT$$GT$$GT$$GT$$GT$17h3af527a13eea77f9E', symObjAddr: 0x91EA8, symBinAddr: 0x91240, symSize: 0x54 }
  - { offsetInCU: 0x38C1, offset: 0x62A5D, size: 0x8, addend: 0x0, symName: '__ZN4core3ptr215drop_in_place$LT$alloc..boxed..Box$LT$std..thread..local..os..Value$LT$core..cell..Cell$LT$core..option..Option$LT$alloc..sync..Arc$LT$std..sync..mutex..Mutex$LT$alloc..vec..Vec$LT$u8$GT$$GT$$GT$$GT$$GT$$GT$$GT$$GT$17h3af527a13eea77f9E', symObjAddr: 0x91EA8, symBinAddr: 0x91240, symSize: 0x54 }
  - { offsetInCU: 0x3CCE, offset: 0x62E6A, size: 0x8, addend: 0x0, symName: '__ZN68_$LT$std..thread..local..AccessError$u20$as$u20$core..fmt..Debug$GT$3fmt17hc0f1e950e7e5af0cE', symObjAddr: 0x785B8, symBinAddr: 0x79330, symSize: 0x18 }
  - { offsetInCU: 0x3CD6, offset: 0x62E72, size: 0x8, addend: 0x0, symName: __ZN3std6thread5local2os13destroy_value17h0a681db880fc48c2E, symObjAddr: 0x785D0, symBinAddr: 0x79348, symSize: 0x64 }
  - { offsetInCU: 0x3CF8, offset: 0x62E94, size: 0x8, addend: 0x0, symName: '__ZN68_$LT$std..thread..local..AccessError$u20$as$u20$core..fmt..Debug$GT$3fmt17hc0f1e950e7e5af0cE', symObjAddr: 0x785B8, symBinAddr: 0x79330, symSize: 0x18 }
  - { offsetInCU: 0x3D00, offset: 0x62E9C, size: 0x8, addend: 0x0, symName: __ZN3std6thread5local2os13destroy_value17h0a681db880fc48c2E, symObjAddr: 0x785D0, symBinAddr: 0x79348, symSize: 0x64 }
  - { offsetInCU: 0x3D16, offset: 0x62EB2, size: 0x8, addend: 0x0, symName: '__ZN68_$LT$std..thread..local..AccessError$u20$as$u20$core..fmt..Debug$GT$3fmt17hc0f1e950e7e5af0cE', symObjAddr: 0x785B8, symBinAddr: 0x79330, symSize: 0x18 }
  - { offsetInCU: 0x3D1E, offset: 0x62EBA, size: 0x8, addend: 0x0, symName: __ZN3std6thread5local2os13destroy_value17h0a681db880fc48c2E, symObjAddr: 0x785D0, symBinAddr: 0x79348, symSize: 0x64 }
  - { offsetInCU: 0x3D34, offset: 0x62ED0, size: 0x8, addend: 0x0, symName: '__ZN68_$LT$std..thread..local..AccessError$u20$as$u20$core..fmt..Debug$GT$3fmt17hc0f1e950e7e5af0cE', symObjAddr: 0x785B8, symBinAddr: 0x79330, symSize: 0x18 }
  - { offsetInCU: 0x3D3C, offset: 0x62ED8, size: 0x8, addend: 0x0, symName: __ZN3std6thread5local2os13destroy_value17h0a681db880fc48c2E, symObjAddr: 0x785D0, symBinAddr: 0x79348, symSize: 0x64 }
  - { offsetInCU: 0x3E21, offset: 0x62FBD, size: 0x8, addend: 0x0, symName: __ZN3std6thread6Thread3new17h13c5d7738340f03fE, symObjAddr: 0x78B84, symBinAddr: 0x798BC, symSize: 0x134 }
  - { offsetInCU: 0x3E29, offset: 0x62FC5, size: 0x8, addend: 0x0, symName: '__ZN4core3ptr47drop_in_place$LT$alloc..ffi..c_str..CString$GT$17hc3079ac178ffe7b9E', symObjAddr: 0x78CB8, symBinAddr: 0x799F0, symSize: 0x1C }
  - { offsetInCU: 0x410B, offset: 0x632A7, size: 0x8, addend: 0x0, symName: __ZN3std6thread7current17h006548679239cce4E, symObjAddr: 0x78CE4, symBinAddr: 0x79A1C, symSize: 0xD4 }
  - { offsetInCU: 0x4113, offset: 0x632AF, size: 0x8, addend: 0x0, symName: '__ZN4core3ptr44drop_in_place$LT$std..thread..PanicGuard$GT$17h96e14951fe9f0916E', symObjAddr: 0x78DB8, symBinAddr: 0x79AF0, symSize: 0x6C }
  - { offsetInCU: 0x440D, offset: 0x635A9, size: 0x8, addend: 0x0, symName: __ZN3std6thread8ThreadId3new9exhausted17ha53c1a8f751f3ee2E, symObjAddr: 0x79960, symBinAddr: 0xBF034, symSize: 0x3C }
  - { offsetInCU: 0x4415, offset: 0x635B1, size: 0x8, addend: 0x0, symName: '__ZN4core3ptr107drop_in_place$LT$alloc..sync..Arc$LT$core..mem..maybe_uninit..MaybeUninit$LT$std..thread..Inner$GT$$GT$$GT$17hbd6a882f7eb6a72bE', symObjAddr: 0x7999C, symBinAddr: 0x7A62C, symSize: 0x28 }
  - { offsetInCU: 0x4457, offset: 0x635F3, size: 0x8, addend: 0x0, symName: __ZN3std6thread6scoped9ScopeData29decrement_num_running_threads17h1f885f8d13ed34c4E, symObjAddr: 0x79A10, symBinAddr: 0x7A6A0, symSize: 0x4C }
  - { offsetInCU: 0x445F, offset: 0x635FB, size: 0x8, addend: 0x0, symName: __ZN3std6thread12park_timeout17h0f0ca36483e4cd2aE, symObjAddr: 0x79A5C, symBinAddr: 0x7A6EC, symSize: 0xEC }
  - { offsetInCU: 0x4534, offset: 0x636D0, size: 0x8, addend: 0x0, symName: __ZN3std6thread12park_timeout17h0f0ca36483e4cd2aE, symObjAddr: 0x79A5C, symBinAddr: 0x7A6EC, symSize: 0xEC }
  - { offsetInCU: 0x453C, offset: 0x636D8, size: 0x8, addend: 0x0, symName: '__ZN79_$LT$std..backtrace_rs..symbolize..SymbolName$u20$as$u20$core..fmt..Display$GT$3fmt17h481f8c7ed4456f45E', symObjAddr: 0x79B48, symBinAddr: 0x7A7D8, symSize: 0x218 }
  - { offsetInCU: 0x47D2, offset: 0x6396E, size: 0x8, addend: 0x0, symName: __ZN3std9panicking11panic_count17LOCAL_PANIC_COUNT7__getit17ha83da79a3e52a3a7E, symObjAddr: 0x7846C, symBinAddr: 0x791E4, symSize: 0xEC }
  - { offsetInCU: 0x47DA, offset: 0x63976, size: 0x8, addend: 0x0, symName: '__ZN4core3ptr131drop_in_place$LT$alloc..boxed..Box$LT$dyn$u20$core..ops..function..FnOnce$LT$$LP$$RP$$GT$$u2b$Output$u20$$u3d$$u20$$LP$$RP$$GT$$GT$17h3086748aec039692E', symObjAddr: 0x78558, symBinAddr: 0x792D0, symSize: 0x60 }
  - { offsetInCU: 0x4A7D, offset: 0x63C19, size: 0x8, addend: 0x0, symName: __ZN3std9panicking11panic_count17is_zero_slow_path17hd79a5a41d38cfe1aE, symObjAddr: 0x7AF20, symBinAddr: 0xBF12C, symSize: 0x50 }
  - { offsetInCU: 0x4A85, offset: 0x63C21, size: 0x8, addend: 0x0, symName: '__ZN4core3ptr46drop_in_place$LT$std..io..stdio..StdinLock$GT$17h66e6c63ee729ee55E', symObjAddr: 0x7AF70, symBinAddr: 0x7BAF4, symSize: 0x5C }
  - { offsetInCU: 0x4AED, offset: 0x63C89, size: 0x8, addend: 0x0, symName: '__ZN4core3ptr46drop_in_place$LT$std..io..stdio..StdinLock$GT$17h66e6c63ee729ee55E', symObjAddr: 0x7AF70, symBinAddr: 0x7BAF4, symSize: 0x5C }
  - { offsetInCU: 0x4B9D, offset: 0x63D39, size: 0x8, addend: 0x0, symName: _rust_panic, symObjAddr: 0x922C4, symBinAddr: 0x9165C, symSize: 0xC }
  - { offsetInCU: 0x4BA5, offset: 0x63D41, size: 0x8, addend: 0x0, symName: __ZN3std5panic19get_backtrace_style17h566c76983fc345d7E, symObjAddr: 0x922D0, symBinAddr: 0x91668, symSize: 0x114 }
  - { offsetInCU: 0x4BC1, offset: 0x63D5D, size: 0x8, addend: 0x0, symName: '__ZN3std9panicking12default_hook28_$u7b$$u7b$closure$u7d$$u7d$17hc38d37b7ce8e4427E', symObjAddr: 0x95794, symBinAddr: 0x948DC, symSize: 0x224 }
  - { offsetInCU: 0x4BC9, offset: 0x63D65, size: 0x8, addend: 0x0, symName: '__ZN64_$LT$std..sys..unix..stdio..Stderr$u20$as$u20$std..io..Write$GT$5write17h7da2a9305ce399d1E', symObjAddr: 0x959B8, symBinAddr: 0x94B00, symSize: 0x60 }
  - { offsetInCU: 0x511B, offset: 0x642B7, size: 0x8, addend: 0x0, symName: _rust_begin_unwind, symObjAddr: 0x96208, symBinAddr: 0x95350, symSize: 0x40 }
  - { offsetInCU: 0x5123, offset: 0x642BF, size: 0x8, addend: 0x0, symName: __ZN3std10sys_common9backtrace26__rust_end_short_backtrace17hc39ccabaf6add417E, symObjAddr: 0x96248, symBinAddr: 0x95390, symSize: 0x24 }
  - { offsetInCU: 0x51BF, offset: 0x6435B, size: 0x8, addend: 0x0, symName: '__ZN3std9panicking19begin_panic_handler28_$u7b$$u7b$closure$u7d$$u7d$17h13c4020e34d133f2E', symObjAddr: 0x9626C, symBinAddr: 0x953B4, symSize: 0xA8 }
  - { offsetInCU: 0x51C7, offset: 0x64363, size: 0x8, addend: 0x0, symName: __ZN3std9panicking20rust_panic_with_hook17he476960d047e36ceE, symObjAddr: 0x96314, symBinAddr: 0x9545C, symSize: 0x700 }
  - { offsetInCU: 0x52B0, offset: 0x6444C, size: 0x8, addend: 0x0, symName: '__ZN90_$LT$std..panicking..begin_panic_handler..PanicPayload$u20$as$u20$core..panic..BoxMeUp$GT$8take_box17h10ec94d84b520166E', symObjAddr: 0x96A14, symBinAddr: 0x95B5C, symSize: 0xEC }
  - { offsetInCU: 0x52B8, offset: 0x64454, size: 0x8, addend: 0x0, symName: '__ZN90_$LT$std..panicking..begin_panic_handler..PanicPayload$u20$as$u20$core..panic..BoxMeUp$GT$3get17hbb6d60515b2f708fE', symObjAddr: 0x96B00, symBinAddr: 0x95C48, symSize: 0x94 }
  - { offsetInCU: 0x54CD, offset: 0x64669, size: 0x8, addend: 0x0, symName: '__ZN90_$LT$std..panicking..begin_panic_handler..PanicPayload$u20$as$u20$core..panic..BoxMeUp$GT$3get17hbb6d60515b2f708fE', symObjAddr: 0x96B00, symBinAddr: 0x95C48, symSize: 0x94 }
  - { offsetInCU: 0x54D5, offset: 0x64671, size: 0x8, addend: 0x0, symName: '__ZN36_$LT$T$u20$as$u20$core..any..Any$GT$7type_id17h81b88bab92c8afbcE', symObjAddr: 0x96B94, symBinAddr: 0x95CDC, symSize: 0x14 }
  - { offsetInCU: 0x5557, offset: 0x646F3, size: 0x8, addend: 0x0, symName: '__ZN93_$LT$std..panicking..begin_panic_handler..StrPanicPayload$u20$as$u20$core..panic..BoxMeUp$GT$8take_box17h2ce84ced2235cf4fE', symObjAddr: 0x96DBC, symBinAddr: 0x95F04, symSize: 0x40 }
  - { offsetInCU: 0x555F, offset: 0x646FB, size: 0x8, addend: 0x0, symName: '__ZN93_$LT$std..panicking..begin_panic_handler..StrPanicPayload$u20$as$u20$core..panic..BoxMeUp$GT$3get17he274cb085c77136fE', symObjAddr: 0x96DFC, symBinAddr: 0x95F44, symSize: 0xC }
  - { offsetInCU: 0x5684, offset: 0x64820, size: 0x8, addend: 0x0, symName: '__ZN93_$LT$std..panicking..begin_panic_handler..StrPanicPayload$u20$as$u20$core..panic..BoxMeUp$GT$3get17he274cb085c77136fE', symObjAddr: 0x96DFC, symBinAddr: 0x95F44, symSize: 0xC }
  - { offsetInCU: 0x568C, offset: 0x64828, size: 0x8, addend: 0x0, symName: '__ZN36_$LT$T$u20$as$u20$core..any..Any$GT$7type_id17h659f1bacaadaf065E', symObjAddr: 0x96E08, symBinAddr: 0x95F50, symSize: 0x14 }
  - { offsetInCU: 0x56B7, offset: 0x64853, size: 0x8, addend: 0x0, symName: __ZN3std9panicking20rust_panic_with_hook17he476960d047e36ceE, symObjAddr: 0x96314, symBinAddr: 0x9545C, symSize: 0x700 }
  - { offsetInCU: 0x56BF, offset: 0x6485B, size: 0x8, addend: 0x0, symName: '__ZN90_$LT$std..panicking..begin_panic_handler..PanicPayload$u20$as$u20$core..panic..BoxMeUp$GT$8take_box17h10ec94d84b520166E', symObjAddr: 0x96A14, symBinAddr: 0x95B5C, symSize: 0xEC }
  - { offsetInCU: 0x69C2, offset: 0x65B5E, size: 0x8, addend: 0x0, symName: __ZN3std5panic19get_backtrace_style17h566c76983fc345d7E, symObjAddr: 0x922D0, symBinAddr: 0x91668, symSize: 0x114 }
  - { offsetInCU: 0x69CA, offset: 0x65B66, size: 0x8, addend: 0x0, symName: '__ZN5alloc7raw_vec19RawVec$LT$T$C$A$GT$16reserve_for_push17h918af27258095581E', symObjAddr: 0x923E4, symBinAddr: 0x9177C, symSize: 0xBC }
  - { offsetInCU: 0x6D9E, offset: 0x65F3A, size: 0x8, addend: 0x0, symName: __ZN3std10sys_common16thread_local_key9StaticKey9lazy_init17hc3ed9eda391baa07E, symObjAddr: 0x77DC4, symBinAddr: 0x78B3C, symSize: 0x12C }
  - { offsetInCU: 0x6DA6, offset: 0x65F42, size: 0x8, addend: 0x0, symName: __ZN3std2io5Write9write_fmt17hb21375fccc3920a7E, symObjAddr: 0x77EF0, symBinAddr: 0x78C68, symSize: 0xEC }
  - { offsetInCU: 0x7010, offset: 0x661AC, size: 0x8, addend: 0x0, symName: __ZN3std10sys_common11thread_info11THREAD_INFO7__getit17ha76c62709d165589E, symObjAddr: 0x78E24, symBinAddr: 0x79B5C, symSize: 0x134 }
  - { offsetInCU: 0x7018, offset: 0x661B4, size: 0x8, addend: 0x0, symName: __ZN3std6thread5local2os13destroy_value17hd255a2c132d9c538E, symObjAddr: 0x78F58, symBinAddr: 0x79C90, symSize: 0xA8 }
  - { offsetInCU: 0x740F, offset: 0x665AB, size: 0x8, addend: 0x0, symName: '__ZN3std10sys_common8lazy_box16LazyBox$LT$T$GT$10initialize17h0a6ada2f0edc98e6E', symObjAddr: 0x7905C, symBinAddr: 0xBEFC8, symSize: 0x6C }
  - { offsetInCU: 0x7417, offset: 0x665B3, size: 0x8, addend: 0x0, symName: '__ZN108_$LT$std..sys..unix..locks..pthread_mutex..AllocatedMutex$u20$as$u20$std..sys_common..lazy_box..LazyInit$GT$4init17hdd78762cc2a3de7fE', symObjAddr: 0x790C8, symBinAddr: 0x79D94, symSize: 0x1AC }
  - { offsetInCU: 0x7554, offset: 0x666F0, size: 0x8, addend: 0x0, symName: '__ZN3std10sys_common8lazy_box16LazyBox$LT$T$GT$10initialize17h0abf197966e094cbE', symObjAddr: 0x90CCC, symBinAddr: 0xC0744, symSize: 0x120 }
  - { offsetInCU: 0x755C, offset: 0x666F8, size: 0x8, addend: 0x0, symName: '__ZN4core3ptr75drop_in_place$LT$std..sys..unix..locks..pthread_rwlock..AllocatedRwLock$GT$17h20fdc8a668f8bd76E', symObjAddr: 0x90DEC, symBinAddr: 0x90288, symSize: 0x4 }
  - { offsetInCU: 0x772A, offset: 0x668C6, size: 0x8, addend: 0x0, symName: '__ZN3std10sys_common8lazy_box16LazyBox$LT$T$GT$10initialize17h69ecb4fb0f7dd1d7E', symObjAddr: 0x924AC, symBinAddr: 0xC0974, symSize: 0xCC }
  - { offsetInCU: 0x7732, offset: 0x668CE, size: 0x8, addend: 0x0, symName: '__ZN4core3ptr77drop_in_place$LT$std..sys..unix..locks..pthread_condvar..AllocatedCondvar$GT$17had1f5b058710b6e8E', symObjAddr: 0x92578, symBinAddr: 0x91838, symSize: 0x4 }
  - { offsetInCU: 0x79C3, offset: 0x66B5F, size: 0x8, addend: 0x0, symName: __ZN3std10sys_common9backtrace15output_filename17h9da34152f88c8a78E, symObjAddr: 0x79D60, symBinAddr: 0x7A9F0, symSize: 0x434 }
  - { offsetInCU: 0x79CB, offset: 0x66B67, size: 0x8, addend: 0x0, symName: '__ZN4core3ptr50drop_in_place$LT$alloc..borrow..Cow$LT$str$GT$$GT$17h3e6e2ed0215557e9E', symObjAddr: 0x7A194, symBinAddr: 0x7AE24, symSize: 0x1C }
  - { offsetInCU: 0x7D86, offset: 0x66F22, size: 0x8, addend: 0x0, symName: '__ZN3std10sys_common9backtrace10_print_fmt28_$u7b$$u7b$closure$u7d$$u7d$17hcf3bf937e3729968E', symObjAddr: 0x91394, symBinAddr: 0x90830, symSize: 0x48 }
  - { offsetInCU: 0x7D8E, offset: 0x66F2A, size: 0x8, addend: 0x0, symName: '__ZN4core3ptr71drop_in_place$LT$std..sync..rwlock..RwLockReadGuard$LT$$LP$$RP$$GT$$GT$17h9e852fef908926ccE', symObjAddr: 0x913DC, symBinAddr: 0x90878, symSize: 0x3C }
  - { offsetInCU: 0x7DB8, offset: 0x66F54, size: 0x8, addend: 0x0, symName: '__ZN3std10sys_common9backtrace10_print_fmt28_$u7b$$u7b$closure$u7d$$u7d$17hceaf68f04be06505E', symObjAddr: 0x92A38, symBinAddr: 0x91B80, symSize: 0x2694 }
  - { offsetInCU: 0x7DC0, offset: 0x66F5C, size: 0x8, addend: 0x0, symName: '__ZN3std10sys_common9backtrace10_print_fmt28_$u7b$$u7b$closure$u7d$$u7d$28_$u7b$$u7b$closure$u7d$$u7d$17h19c3adab23d7d2fdE', symObjAddr: 0x950CC, symBinAddr: 0x94214, symSize: 0x1BC }
  - { offsetInCU: 0xBFAB, offset: 0x6B147, size: 0x8, addend: 0x0, symName: '__ZN3std10sys_common9backtrace10_print_fmt28_$u7b$$u7b$closure$u7d$$u7d$28_$u7b$$u7b$closure$u7d$$u7d$17h19c3adab23d7d2fdE', symObjAddr: 0x950CC, symBinAddr: 0x94214, symSize: 0x1BC }
  - { offsetInCU: 0xBFB3, offset: 0x6B14F, size: 0x8, addend: 0x0, symName: '__ZN55_$LT$$RF$str$u20$as$u20$core..str..pattern..Pattern$GT$15is_contained_in17h7f91ef1c78ffd9fdE', symObjAddr: 0x95288, symBinAddr: 0x943D0, symSize: 0x388 }
  - { offsetInCU: 0xC1ED, offset: 0x6B389, size: 0x8, addend: 0x0, symName: '__ZN91_$LT$std..sys_common..backtrace.._print..DisplayBacktrace$u20$as$u20$core..fmt..Display$GT$3fmt17h7de9207d3c56fc89E', symObjAddr: 0x9271C, symBinAddr: 0x91864, symSize: 0x2FC }
  - { offsetInCU: 0xC1F5, offset: 0x6B391, size: 0x8, addend: 0x0, symName: '__ZN4core3ptr70drop_in_place$LT$std..panicking..begin_panic_handler..PanicPayload$GT$17hf4e6995e830a8ce1E', symObjAddr: 0x92A18, symBinAddr: 0x91B60, symSize: 0x1C }
  - { offsetInCU: 0xCA73, offset: 0x6BC0F, size: 0x8, addend: 0x0, symName: __ZN3std10sys_common9backtrace5print17h057d66d5ce8b4eb4E, symObjAddr: 0x95B98, symBinAddr: 0x94CE0, symSize: 0x148 }
  - { offsetInCU: 0xCA7B, offset: 0x6BC17, size: 0x8, addend: 0x0, symName: '__ZN3std2io5impls74_$LT$impl$u20$std..io..Write$u20$for$u20$alloc..vec..Vec$LT$u8$C$A$GT$$GT$5write17h3d4841a9289f1d59E', symObjAddr: 0x95CE0, symBinAddr: 0x94E28, symSize: 0x84 }
  - { offsetInCU: 0xCD32, offset: 0x6BECE, size: 0x8, addend: 0x0, symName: __ZN3std10sys_common9backtrace26__rust_end_short_backtrace17hc39ccabaf6add417E, symObjAddr: 0x96248, symBinAddr: 0x95390, symSize: 0x24 }
  - { offsetInCU: 0xCD3A, offset: 0x6BED6, size: 0x8, addend: 0x0, symName: '__ZN3std9panicking19begin_panic_handler28_$u7b$$u7b$closure$u7d$$u7d$17h13c4020e34d133f2E', symObjAddr: 0x9626C, symBinAddr: 0x953B4, symSize: 0xA8 }
  - { offsetInCU: 0xCD7E, offset: 0x6BF1A, size: 0x8, addend: 0x0, symName: _rust_eh_personality, symObjAddr: 0x77AE8, symBinAddr: 0x78860, symSize: 0x2DC }
  - { offsetInCU: 0xCD86, offset: 0x6BF22, size: 0x8, addend: 0x0, symName: __ZN3std10sys_common16thread_local_key9StaticKey9lazy_init17hc3ed9eda391baa07E, symObjAddr: 0x77DC4, symBinAddr: 0x78B3C, symSize: 0x12C }
  - { offsetInCU: 0xCF72, offset: 0x6C10E, size: 0x8, addend: 0x0, symName: '__ZN3std11personality3gcc14find_eh_action28_$u7b$$u7b$closure$u7d$$u7d$17h91ecb79178947faaE', symObjAddr: 0x78920, symBinAddr: 0x79658, symSize: 0xC }
  - { offsetInCU: 0xCF7A, offset: 0x6C116, size: 0x8, addend: 0x0, symName: '__ZN4core3ops8function6FnOnce40call_once$u7b$$u7b$vtable.shim$u7d$$u7d$17ha21c028bb3358aacE', symObjAddr: 0x7892C, symBinAddr: 0x79664, symSize: 0xC }
  - { offsetInCU: 0xCF9A, offset: 0x6C136, size: 0x8, addend: 0x0, symName: '__ZN3std11personality3gcc14find_eh_action28_$u7b$$u7b$closure$u7d$$u7d$17hc590dca35827584fE', symObjAddr: 0x78938, symBinAddr: 0x79670, symSize: 0xC }
  - { offsetInCU: 0xCFA2, offset: 0x6C13E, size: 0x8, addend: 0x0, symName: __ZN3std6thread5local2os13destroy_value17haf04799ee17b1e1cE, symObjAddr: 0x78944, symBinAddr: 0x7967C, symSize: 0xA0 }
  - { offsetInCU: 0xCFEC, offset: 0x6C188, size: 0x8, addend: 0x0, symName: __ZN3std11personality5dwarf2eh20read_encoded_pointer17h31295a8d5f18278dE, symObjAddr: 0x78778, symBinAddr: 0x794B0, symSize: 0x19C }
  - { offsetInCU: 0xCFF4, offset: 0x6C190, size: 0x8, addend: 0x0, symName: '__ZN4core3ops8function6FnOnce40call_once$u7b$$u7b$vtable.shim$u7d$$u7d$17he8e86bf578c233b0E', symObjAddr: 0x78914, symBinAddr: 0x7964C, symSize: 0xC }
  - { offsetInCU: 0xD320, offset: 0x6C4BC, size: 0x8, addend: 0x0, symName: '__ZN58_$LT$std..io..error..Error$u20$as$u20$core..fmt..Debug$GT$3fmt17h908002498e26c66aE', symObjAddr: 0x7932C, symBinAddr: 0x79FF8, symSize: 0x474 }
  - { offsetInCU: 0xD328, offset: 0x6C4C4, size: 0x8, addend: 0x0, symName: '__ZN4core3ptr205drop_in_place$LT$$LT$alloc..boxed..Box$LT$dyn$u20$core..error..Error$u2b$core..marker..Send$u2b$core..marker..Sync$GT$$u20$as$u20$core..convert..From$LT$alloc..string..String$GT$$GT$..from..StringError$GT$17hf9f7e7ff8572804eE', symObjAddr: 0x797A0, symBinAddr: 0x7A46C, symSize: 0x14 }
  - { offsetInCU: 0xD9E2, offset: 0x6CB7E, size: 0x8, addend: 0x0, symName: '__ZN62_$LT$std..io..error..ErrorKind$u20$as$u20$core..fmt..Debug$GT$3fmt17h771d92d4dd5b847bE', symObjAddr: 0x79908, symBinAddr: 0x7A5D4, symSize: 0x30 }
  - { offsetInCU: 0xD9EA, offset: 0x6CB86, size: 0x8, addend: 0x0, symName: '__ZN4core3ptr40drop_in_place$LT$std..thread..Thread$GT$17ha7d6f8272dcec9acE', symObjAddr: 0x79938, symBinAddr: 0x7A604, symSize: 0x28 }
  - { offsetInCU: 0xDA0B, offset: 0x6CBA7, size: 0x8, addend: 0x0, symName: '__ZN4core3ptr40drop_in_place$LT$std..thread..Thread$GT$17ha7d6f8272dcec9acE', symObjAddr: 0x79938, symBinAddr: 0x7A604, symSize: 0x28 }
  - { offsetInCU: 0xDA20, offset: 0x6CBBC, size: 0x8, addend: 0x0, symName: '__ZN60_$LT$std..io..error..Error$u20$as$u20$core..fmt..Display$GT$3fmt17h766d95c2d368631bE', symObjAddr: 0x91418, symBinAddr: 0x908B4, symSize: 0x510 }
  - { offsetInCU: 0xDA28, offset: 0x6CBC4, size: 0x8, addend: 0x0, symName: '__ZN60_$LT$alloc..string..String$u20$as$u20$core..fmt..Display$GT$3fmt17h39ea319a996c860cE.1148', symObjAddr: 0x91928, symBinAddr: 0x90DC4, symSize: 0x10 }
  - { offsetInCU: 0xDE22, offset: 0x6CFBE, size: 0x8, addend: 0x0, symName: __ZN3std2io5Write9write_fmt17hb21375fccc3920a7E, symObjAddr: 0x77EF0, symBinAddr: 0x78C68, symSize: 0xEC }
  - { offsetInCU: 0xDE2A, offset: 0x6CFC6, size: 0x8, addend: 0x0, symName: '__ZN4core3ptr81drop_in_place$LT$core..result..Result$LT$$LP$$RP$$C$std..io..error..Error$GT$$GT$17h50777f0a839660cbE', symObjAddr: 0x77FDC, symBinAddr: 0x78D54, symSize: 0x94 }
  - { offsetInCU: 0xDFC5, offset: 0x6D161, size: 0x8, addend: 0x0, symName: '__ZN80_$LT$std..io..Write..write_fmt..Adapter$LT$T$GT$$u20$as$u20$core..fmt..Write$GT$9write_str17hef5c6559da474e9bE', symObjAddr: 0x78114, symBinAddr: 0x78E8C, symSize: 0x134 }
  - { offsetInCU: 0xDFCD, offset: 0x6D169, size: 0x8, addend: 0x0, symName: __ZN4core3fmt5Write10write_char17h131258929a0dd663E, symObjAddr: 0x78248, symBinAddr: 0x78FC0, symSize: 0xC8 }
  - { offsetInCU: 0xE2F1, offset: 0x6D48D, size: 0x8, addend: 0x0, symName: '__ZN80_$LT$std..io..Write..write_fmt..Adapter$LT$T$GT$$u20$as$u20$core..fmt..Write$GT$9write_str17he3db7cc307a7a833E', symObjAddr: 0x92010, symBinAddr: 0x913A8, symSize: 0x78 }
  - { offsetInCU: 0xE2F9, offset: 0x6D495, size: 0x8, addend: 0x0, symName: __ZN4core3fmt5Write10write_char17h2f668b23e7bb56a0E, symObjAddr: 0x92088, symBinAddr: 0x91420, symSize: 0x120 }
  - { offsetInCU: 0xE423, offset: 0x6D5BF, size: 0x8, addend: 0x0, symName: __ZN4core3fmt5Write10write_char17h2f668b23e7bb56a0E, symObjAddr: 0x92088, symBinAddr: 0x91420, symSize: 0x120 }
  - { offsetInCU: 0xE447, offset: 0x6D5E3, size: 0x8, addend: 0x0, symName: __ZN3std2io5Write18write_all_vectored17hcb85dd2df0d0b0c6E, symObjAddr: 0x91A3C, symBinAddr: 0x90DD4, symSize: 0x1E0 }
  - { offsetInCU: 0xE44F, offset: 0x6D5EB, size: 0x8, addend: 0x0, symName: __ZN3std2io5stdio14OUTPUT_CAPTURE7__getit17hffacea211a4fe2f9E, symObjAddr: 0x91C1C, symBinAddr: 0x90FB4, symSize: 0x128 }
  - { offsetInCU: 0xE7A2, offset: 0x6D93E, size: 0x8, addend: 0x0, symName: __ZN3std2io5Write9write_fmt17h9ce3f3087b088578E, symObjAddr: 0x91EFC, symBinAddr: 0x91294, symSize: 0xEC }
  - { offsetInCU: 0xE7AA, offset: 0x6D946, size: 0x8, addend: 0x0, symName: '__ZN4core3ptr101drop_in_place$LT$alloc..sync..Arc$LT$std..sync..mutex..Mutex$LT$alloc..vec..Vec$LT$u8$GT$$GT$$GT$$GT$17h960733d3d28a8891E', symObjAddr: 0x91FE8, symBinAddr: 0x91380, symSize: 0x28 }
  - { offsetInCU: 0xE92A, offset: 0x6DAC6, size: 0x8, addend: 0x0, symName: __ZN3std2io5Write9write_all17hf0ca1187abf29de0E, symObjAddr: 0x95A88, symBinAddr: 0x94BD0, symSize: 0xA8 }
  - { offsetInCU: 0xE932, offset: 0x6DACE, size: 0x8, addend: 0x0, symName: '__ZN44_$LT$$RF$T$u20$as$u20$core..fmt..Display$GT$3fmt17hcbe23964e189f48dE', symObjAddr: 0x95B30, symBinAddr: 0x94C78, symSize: 0x68 }
  - { offsetInCU: 0xEAD8, offset: 0x6DC74, size: 0x8, addend: 0x0, symName: __ZN3std2io5Write18write_all_vectored17h7d42b11dfe2fe515E, symObjAddr: 0x95F40, symBinAddr: 0x95088, symSize: 0x2C8 }
  - { offsetInCU: 0xEAE0, offset: 0x6DC7C, size: 0x8, addend: 0x0, symName: _rust_begin_unwind, symObjAddr: 0x96208, symBinAddr: 0x95350, symSize: 0x40 }
  - { offsetInCU: 0xF03A, offset: 0x6E1D6, size: 0x8, addend: 0x0, symName: __ZN3std2io5stdio14OUTPUT_CAPTURE7__getit17hffacea211a4fe2f9E, symObjAddr: 0x91C1C, symBinAddr: 0x90FB4, symSize: 0x128 }
  - { offsetInCU: 0xF042, offset: 0x6E1DE, size: 0x8, addend: 0x0, symName: '__ZN5alloc4sync12Arc$LT$T$GT$9drop_slow17hdd618400c1bfcb7cE', symObjAddr: 0x91D44, symBinAddr: 0x910DC, symSize: 0x98 }
  - { offsetInCU: 0xF41D, offset: 0x6E5B9, size: 0x8, addend: 0x0, symName: '__ZN3std2io5impls74_$LT$impl$u20$std..io..Write$u20$for$u20$alloc..vec..Vec$LT$u8$C$A$GT$$GT$5write17h3d4841a9289f1d59E', symObjAddr: 0x95CE0, symBinAddr: 0x94E28, symSize: 0x84 }
  - { offsetInCU: 0xF425, offset: 0x6E5C1, size: 0x8, addend: 0x0, symName: '__ZN3std2io5impls74_$LT$impl$u20$std..io..Write$u20$for$u20$alloc..vec..Vec$LT$u8$C$A$GT$$GT$14write_vectored17h0946595983ad5f25E', symObjAddr: 0x95D64, symBinAddr: 0x94EAC, symSize: 0x154 }
  - { offsetInCU: 0xF549, offset: 0x6E6E5, size: 0x8, addend: 0x0, symName: '__ZN3std2io5impls74_$LT$impl$u20$std..io..Write$u20$for$u20$alloc..vec..Vec$LT$u8$C$A$GT$$GT$14write_vectored17h0946595983ad5f25E', symObjAddr: 0x95D64, symBinAddr: 0x94EAC, symSize: 0x154 }
  - { offsetInCU: 0xF55B, offset: 0x6E6F7, size: 0x8, addend: 0x0, symName: '__ZN3std2io5impls74_$LT$impl$u20$std..io..Write$u20$for$u20$alloc..vec..Vec$LT$u8$C$A$GT$$GT$14write_vectored17h0946595983ad5f25E', symObjAddr: 0x95D64, symBinAddr: 0x94EAC, symSize: 0x154 }
  - { offsetInCU: 0xF563, offset: 0x6E6FF, size: 0x8, addend: 0x0, symName: '__ZN3std2io5impls74_$LT$impl$u20$std..io..Write$u20$for$u20$alloc..vec..Vec$LT$u8$C$A$GT$$GT$17is_write_vectored17ha04a4a52eaa95f1dE', symObjAddr: 0x95EB8, symBinAddr: 0x95000, symSize: 0x8 }
  - { offsetInCU: 0xF7A9, offset: 0x6E945, size: 0x8, addend: 0x0, symName: '__ZN3std2io5impls74_$LT$impl$u20$std..io..Write$u20$for$u20$alloc..vec..Vec$LT$u8$C$A$GT$$GT$17is_write_vectored17ha04a4a52eaa95f1dE', symObjAddr: 0x95EB8, symBinAddr: 0x95000, symSize: 0x8 }
  - { offsetInCU: 0xF80A, offset: 0x6E9A6, size: 0x8, addend: 0x0, symName: '__ZN3std2io5impls74_$LT$impl$u20$std..io..Write$u20$for$u20$alloc..vec..Vec$LT$u8$C$A$GT$$GT$17is_write_vectored17ha04a4a52eaa95f1dE', symObjAddr: 0x95EB8, symBinAddr: 0x95000, symSize: 0x8 }
  - { offsetInCU: 0xF812, offset: 0x6E9AE, size: 0x8, addend: 0x0, symName: '__ZN3std2io5impls74_$LT$impl$u20$std..io..Write$u20$for$u20$alloc..vec..Vec$LT$u8$C$A$GT$$GT$5flush17h4052681db00c3754E', symObjAddr: 0x95EC0, symBinAddr: 0x95008, symSize: 0x8 }
  - { offsetInCU: 0xF82B, offset: 0x6E9C7, size: 0x8, addend: 0x0, symName: '__ZN3std2io5impls74_$LT$impl$u20$std..io..Write$u20$for$u20$alloc..vec..Vec$LT$u8$C$A$GT$$GT$5flush17h4052681db00c3754E', symObjAddr: 0x95EC0, symBinAddr: 0x95008, symSize: 0x8 }
  - { offsetInCU: 0xF833, offset: 0x6E9CF, size: 0x8, addend: 0x0, symName: '__ZN3std2io5impls74_$LT$impl$u20$std..io..Write$u20$for$u20$alloc..vec..Vec$LT$u8$C$A$GT$$GT$9write_all17h0a2b3863f97cc5dcE', symObjAddr: 0x95EC8, symBinAddr: 0x95010, symSize: 0x78 }
  - { offsetInCU: 0xF84C, offset: 0x6E9E8, size: 0x8, addend: 0x0, symName: '__ZN3std2io5impls74_$LT$impl$u20$std..io..Write$u20$for$u20$alloc..vec..Vec$LT$u8$C$A$GT$$GT$9write_all17h0a2b3863f97cc5dcE', symObjAddr: 0x95EC8, symBinAddr: 0x95010, symSize: 0x78 }
  - { offsetInCU: 0xF854, offset: 0x6E9F0, size: 0x8, addend: 0x0, symName: __ZN3std2io5Write18write_all_vectored17h7d42b11dfe2fe515E, symObjAddr: 0x95F40, symBinAddr: 0x95088, symSize: 0x2C8 }
  - { offsetInCU: 0xF970, offset: 0x6EB0C, size: 0x8, addend: 0x0, symName: __ZN3std2io5Write18write_all_vectored17h7d42b11dfe2fe515E, symObjAddr: 0x95F40, symBinAddr: 0x95088, symSize: 0x2C8 }
  - { offsetInCU: 0xF9B5, offset: 0x6EB51, size: 0x8, addend: 0x0, symName: '__ZN79_$LT$std..backtrace_rs..symbolize..SymbolName$u20$as$u20$core..fmt..Display$GT$3fmt17h481f8c7ed4456f45E', symObjAddr: 0x79B48, symBinAddr: 0x7A7D8, symSize: 0x218 }
  - { offsetInCU: 0xF9BD, offset: 0x6EB59, size: 0x8, addend: 0x0, symName: __ZN3std10sys_common9backtrace15output_filename17h9da34152f88c8a78E, symObjAddr: 0x79D60, symBinAddr: 0x7A9F0, symSize: 0x434 }
  - { offsetInCU: 0xFA6E, offset: 0x6EC0A, size: 0x8, addend: 0x0, symName: __ZN3std10sys_common9backtrace15output_filename17h9da34152f88c8a78E, symObjAddr: 0x79D60, symBinAddr: 0x7A9F0, symSize: 0x434 }
  - { offsetInCU: 0xFBB9, offset: 0x6ED55, size: 0x8, addend: 0x0, symName: __ZN3std12backtrace_rs9symbolize5gimli4mmap17h7118c1518479761cE, symObjAddr: 0x7B230, symBinAddr: 0x7BCE0, symSize: 0x1F0 }
  - { offsetInCU: 0xFBC1, offset: 0x6ED5D, size: 0x8, addend: 0x0, symName: '__ZN4core3ptr68drop_in_place$LT$std..backtrace_rs..symbolize..gimli..mmap..Mmap$GT$17hecb7aac36dc2b89bE', symObjAddr: 0x7B420, symBinAddr: 0x7BED0, symSize: 0x4 }
  - { offsetInCU: 0x10004, offset: 0x6F1A0, size: 0x8, addend: 0x0, symName: __ZN3std12backtrace_rs9symbolize5gimli5macho11find_header17hd790544a66feaa52E, symObjAddr: 0x7B424, symBinAddr: 0x7BED4, symSize: 0x1CC }
  - { offsetInCU: 0x1000C, offset: 0x6F1A8, size: 0x8, addend: 0x0, symName: '__ZN95_$LT$std..path..Components$u20$as$u20$core..iter..traits..double_ended..DoubleEndedIterator$GT$9next_back17h34d83d2c656f3577E', symObjAddr: 0x7B5F0, symBinAddr: 0x7C0A0, symSize: 0x5C0 }
  - { offsetInCU: 0x1053D, offset: 0x6F6D9, size: 0x8, addend: 0x0, symName: __ZN3std12backtrace_rs9symbolize5gimli5macho6Object5parse17h9280987050fd0b43E, symObjAddr: 0x7BC3C, symBinAddr: 0x7C6EC, symSize: 0xB50 }
  - { offsetInCU: 0x10545, offset: 0x6F6E1, size: 0x8, addend: 0x0, symName: __ZN3std12backtrace_rs9symbolize5gimli7Context3new17h9853d90b7d474ef5E, symObjAddr: 0x7C78C, symBinAddr: 0x7D23C, symSize: 0x8A4 }
  - { offsetInCU: 0x11E77, offset: 0x71013, size: 0x8, addend: 0x0, symName: __ZN3std12backtrace_rs9symbolize5gimli5macho6Object7section17h57324cd404c3fd5fE, symObjAddr: 0x87AFC, symBinAddr: 0x88440, symSize: 0x410 }
  - { offsetInCU: 0x11E7F, offset: 0x7101B, size: 0x8, addend: 0x0, symName: '__ZN4core3ptr159drop_in_place$LT$alloc..sync..ArcInner$LT$gimli..read..dwarf..Dwarf$LT$gimli..read..endian_slice..EndianSlice$LT$gimli..endianity..LittleEndian$GT$$GT$$GT$$GT$17hbeff9f36df6b7262E', symObjAddr: 0x87F0C, symBinAddr: 0x88850, symSize: 0x28 }
  - { offsetInCU: 0x123CF, offset: 0x7156B, size: 0x8, addend: 0x0, symName: __ZN3std12backtrace_rs9symbolize5gimli7Context3new17h9853d90b7d474ef5E, symObjAddr: 0x7C78C, symBinAddr: 0x7D23C, symSize: 0x8A4 }
  - { offsetInCU: 0x123D7, offset: 0x71573, size: 0x8, addend: 0x0, symName: __ZN3std3sys4unix2fs7readdir17hc3ac4bc4dcfa4f8fE, symObjAddr: 0x7D030, symBinAddr: 0x7DAE0, symSize: 0x1EC }
  - { offsetInCU: 0x133A5, offset: 0x72541, size: 0x8, addend: 0x0, symName: __ZN3std12backtrace_rs9symbolize6Symbol4name17h42e94ee8d935fdadE, symObjAddr: 0x908E0, symBinAddr: 0x8FE9C, symSize: 0xF8 }
  - { offsetInCU: 0x133AD, offset: 0x72549, size: 0x8, addend: 0x0, symName: __ZN3std3env7_var_os17hf91f345738c0fdc3E, symObjAddr: 0x909D8, symBinAddr: 0x8FF94, symSize: 0x190 }
  - { offsetInCU: 0x135AA, offset: 0x72746, size: 0x8, addend: 0x0, symName: __ZN3std12backtrace_rs5print17BacktraceFrameFmt21print_raw_with_column17h8c13d9fae29f5b4dE, symObjAddr: 0x90E00, symBinAddr: 0x9029C, symSize: 0x4A4 }
  - { offsetInCU: 0x135B2, offset: 0x7274E, size: 0x8, addend: 0x0, symName: '__ZN50_$LT$$BP$mut$u20$T$u20$as$u20$core..fmt..Debug$GT$3fmt17h546cbd433ccc8a2dE', symObjAddr: 0x912A4, symBinAddr: 0x90740, symSize: 0xF0 }
  - { offsetInCU: 0x137B6, offset: 0x72952, size: 0x8, addend: 0x0, symName: __ZN3std12backtrace_rs9backtrace9libunwind5trace8trace_fn17hd0c7df0cd0e50693E, symObjAddr: 0x90B68, symBinAddr: 0x90124, symSize: 0x3C }
  - { offsetInCU: 0x137BE, offset: 0x7295A, size: 0x8, addend: 0x0, symName: __ZN3std3sys4unix5locks14pthread_rwlock6RwLock4read17hf2fc1b59694fa856E, symObjAddr: 0x90BA4, symBinAddr: 0x90160, symSize: 0x128 }
  - { offsetInCU: 0x138D7, offset: 0x72A73, size: 0x8, addend: 0x0, symName: __ZN3std4path4Path5_join17h4b10e4b2905f9ca0E, symObjAddr: 0x7D4F4, symBinAddr: 0x7DFA4, symSize: 0x1A0 }
  - { offsetInCU: 0x138DF, offset: 0x72A7B, size: 0x8, addend: 0x0, symName: '__ZN4core3ptr65drop_in_place$LT$std..backtrace_rs..symbolize..gimli..Mapping$GT$17hdc166ca006b9c4daE', symObjAddr: 0x7D694, symBinAddr: 0x7E144, symSize: 0xD4 }
  - { offsetInCU: 0x13E59, offset: 0x72FF5, size: 0x8, addend: 0x0, symName: __ZN3std4path10Components7as_path17hd6b7d8f842d4ef5fE, symObjAddr: 0x7A590, symBinAddr: 0x7B220, symSize: 0x470 }
  - { offsetInCU: 0x13E61, offset: 0x72FFD, size: 0x8, addend: 0x0, symName: __ZN3std4path10Components15include_cur_dir17h51a817e50e315a77E, symObjAddr: 0x7AA00, symBinAddr: 0x7B690, symSize: 0x114 }
  - { offsetInCU: 0x140B9, offset: 0x73255, size: 0x8, addend: 0x0, symName: __ZN3std4path10Components15include_cur_dir17h51a817e50e315a77E, symObjAddr: 0x7AA00, symBinAddr: 0x7B690, symSize: 0x114 }
  - { offsetInCU: 0x140C1, offset: 0x7325D, size: 0x8, addend: 0x0, symName: __ZN3std4path10Components25parse_next_component_back17hc820a1d1735d5b85E, symObjAddr: 0x7AB14, symBinAddr: 0x7B7A4, symSize: 0x1FC }
  - { offsetInCU: 0x142AA, offset: 0x73446, size: 0x8, addend: 0x0, symName: __ZN3std4path10Components25parse_next_component_back17hc820a1d1735d5b85E, symObjAddr: 0x7AB14, symBinAddr: 0x7B7A4, symSize: 0x1FC }
  - { offsetInCU: 0x142B2, offset: 0x7344E, size: 0x8, addend: 0x0, symName: '__ZN5alloc7raw_vec19RawVec$LT$T$C$A$GT$7reserve21do_reserve_and_handle17h06b4dd5c5b1e415aE', symObjAddr: 0x7AD10, symBinAddr: 0xBF070, symSize: 0xBC }
  - { offsetInCU: 0x14564, offset: 0x73700, size: 0x8, addend: 0x0, symName: '__ZN80_$LT$std..path..Components$u20$as$u20$core..iter..traits..iterator..Iterator$GT$4next17he187be1fcfafc867E', symObjAddr: 0x7A1C0, symBinAddr: 0x7AE50, symSize: 0x3D0 }
  - { offsetInCU: 0x1456C, offset: 0x73708, size: 0x8, addend: 0x0, symName: __ZN3std4path10Components7as_path17hd6b7d8f842d4ef5fE, symObjAddr: 0x7A590, symBinAddr: 0x7B220, symSize: 0x470 }
  - { offsetInCU: 0x14929, offset: 0x73AC5, size: 0x8, addend: 0x0, symName: '__ZN95_$LT$std..path..Components$u20$as$u20$core..iter..traits..double_ended..DoubleEndedIterator$GT$9next_back17h34d83d2c656f3577E', symObjAddr: 0x7B5F0, symBinAddr: 0x7C0A0, symSize: 0x5C0 }
  - { offsetInCU: 0x14931, offset: 0x73ACD, size: 0x8, addend: 0x0, symName: '__ZN4core3ptr70drop_in_place$LT$std..backtrace_rs..symbolize..gimli..stash..Stash$GT$17h5accef22fef23802E', symObjAddr: 0x7BBB0, symBinAddr: 0x7C660, symSize: 0x8C }
  - { offsetInCU: 0x14DD5, offset: 0x73F71, size: 0x8, addend: 0x0, symName: __ZN3std4sync4mpmc7context7Context3new17h5d48f5f70507df4fE, symObjAddr: 0x9257C, symBinAddr: 0xC0A40, symSize: 0x178 }
  - { offsetInCU: 0x14DDD, offset: 0x73F79, size: 0x8, addend: 0x0, symName: '__ZN4core3ptr81drop_in_place$LT$alloc..sync..ArcInner$LT$std..sync..mpmc..context..Inner$GT$$GT$17h91b823d66b987abdE', symObjAddr: 0x926F4, symBinAddr: 0x9183C, symSize: 0x28 }
  - { offsetInCU: 0x151DC, offset: 0x74378, size: 0x8, addend: 0x0, symName: '__ZN63_$LT$std..sync..mpsc..RecvError$u20$as$u20$core..fmt..Debug$GT$3fmt17h31ac55eb3311e17bE', symObjAddr: 0x96E1C, symBinAddr: 0x95F64, symSize: 0x18 }
  - { offsetInCU: 0x151E4, offset: 0x74380, size: 0x8, addend: 0x0, symName: __ZN3std3sys4unix2fs6unlink17hf71c557fc64c416cE, symObjAddr: 0x96E34, symBinAddr: 0x95F7C, symSize: 0xE8 }
  - { offsetInCU: 0x15206, offset: 0x743A2, size: 0x8, addend: 0x0, symName: '__ZN63_$LT$std..sync..mpsc..RecvError$u20$as$u20$core..fmt..Debug$GT$3fmt17h31ac55eb3311e17bE', symObjAddr: 0x96E1C, symBinAddr: 0x95F64, symSize: 0x18 }
  - { offsetInCU: 0x1520E, offset: 0x743AA, size: 0x8, addend: 0x0, symName: __ZN3std3sys4unix2fs6unlink17hf71c557fc64c416cE, symObjAddr: 0x96E34, symBinAddr: 0x95F7C, symSize: 0xE8 }
  - { offsetInCU: 0x152FC, offset: 0x74498, size: 0x8, addend: 0x0, symName: __ZN3std3env7_var_os17hf91f345738c0fdc3E, symObjAddr: 0x909D8, symBinAddr: 0x8FF94, symSize: 0x190 }
  - { offsetInCU: 0x15304, offset: 0x744A0, size: 0x8, addend: 0x0, symName: __ZN3std12backtrace_rs9backtrace9libunwind5trace8trace_fn17hd0c7df0cd0e50693E, symObjAddr: 0x90B68, symBinAddr: 0x90124, symSize: 0x3C }
  - { offsetInCU: 0x15702, offset: 0x7489E, size: 0x8, addend: 0x0, symName: __ZN3std7process5abort17hbbdefb91f0891848E, symObjAddr: 0x924A0, symBinAddr: 0xC0968, symSize: 0xC }
  - { offsetInCU: 0x1570A, offset: 0x748A6, size: 0x8, addend: 0x0, symName: '__ZN3std10sys_common8lazy_box16LazyBox$LT$T$GT$10initialize17h69ecb4fb0f7dd1d7E', symObjAddr: 0x924AC, symBinAddr: 0xC0974, symSize: 0xCC }
  - { offsetInCU: 0x16BB7, offset: 0x75D53, size: 0x8, addend: 0x0, symName: '__ZN4core3ptr81drop_in_place$LT$core..result..Result$LT$$LP$$RP$$C$std..io..error..Error$GT$$GT$17h50777f0a839660cbE', symObjAddr: 0x77FDC, symBinAddr: 0x78D54, symSize: 0x94 }
  - { offsetInCU: 0x16BBF, offset: 0x75D5B, size: 0x8, addend: 0x0, symName: __ZN3std3sys4unix14abort_internal17h9de29c7aa9c1bfbfE, symObjAddr: 0x78070, symBinAddr: 0x78DE8, symSize: 0xC }
  - { offsetInCU: 0x16D28, offset: 0x75EC4, size: 0x8, addend: 0x0, symName: '__ZN4core3ptr88drop_in_place$LT$std..io..Write..write_fmt..Adapter$LT$alloc..vec..Vec$LT$u8$GT$$GT$$GT$17h0b445cfe656e9355E', symObjAddr: 0x78088, symBinAddr: 0x78E00, symSize: 0x8C }
  - { offsetInCU: 0x16D30, offset: 0x75ECC, size: 0x8, addend: 0x0, symName: '__ZN80_$LT$std..io..Write..write_fmt..Adapter$LT$T$GT$$u20$as$u20$core..fmt..Write$GT$9write_str17hef5c6559da474e9bE', symObjAddr: 0x78114, symBinAddr: 0x78E8C, symSize: 0x134 }
  - { offsetInCU: 0x16D62, offset: 0x75EFE, size: 0x8, addend: 0x0, symName: '__ZN80_$LT$std..io..Write..write_fmt..Adapter$LT$T$GT$$u20$as$u20$core..fmt..Write$GT$9write_str17hef5c6559da474e9bE', symObjAddr: 0x78114, symBinAddr: 0x78E8C, symSize: 0x134 }
  - { offsetInCU: 0x16D7C, offset: 0x75F18, size: 0x8, addend: 0x0, symName: '__ZN80_$LT$std..io..Write..write_fmt..Adapter$LT$T$GT$$u20$as$u20$core..fmt..Write$GT$9write_str17hef5c6559da474e9bE', symObjAddr: 0x78114, symBinAddr: 0x78E8C, symSize: 0x134 }
  - { offsetInCU: 0x16D96, offset: 0x75F32, size: 0x8, addend: 0x0, symName: '__ZN80_$LT$std..io..Write..write_fmt..Adapter$LT$T$GT$$u20$as$u20$core..fmt..Write$GT$9write_str17hef5c6559da474e9bE', symObjAddr: 0x78114, symBinAddr: 0x78E8C, symSize: 0x134 }
  - { offsetInCU: 0x16DB0, offset: 0x75F4C, size: 0x8, addend: 0x0, symName: '__ZN80_$LT$std..io..Write..write_fmt..Adapter$LT$T$GT$$u20$as$u20$core..fmt..Write$GT$9write_str17hef5c6559da474e9bE', symObjAddr: 0x78114, symBinAddr: 0x78E8C, symSize: 0x134 }
  - { offsetInCU: 0x16DC9, offset: 0x75F65, size: 0x8, addend: 0x0, symName: '__ZN80_$LT$std..io..Write..write_fmt..Adapter$LT$T$GT$$u20$as$u20$core..fmt..Write$GT$9write_str17hef5c6559da474e9bE', symObjAddr: 0x78114, symBinAddr: 0x78E8C, symSize: 0x134 }
  - { offsetInCU: 0x16EEC, offset: 0x76088, size: 0x8, addend: 0x0, symName: '__ZN4core3ptr100drop_in_place$LT$$RF$mut$u20$std..io..Write..write_fmt..Adapter$LT$alloc..vec..Vec$LT$u8$GT$$GT$$GT$17h55e5e1dcaf07a195E', symObjAddr: 0x78350, symBinAddr: 0x790C8, symSize: 0x4 }
  - { offsetInCU: 0x16EF4, offset: 0x76090, size: 0x8, addend: 0x0, symName: '__ZN50_$LT$$RF$mut$u20$W$u20$as$u20$core..fmt..Write$GT$9write_str17h9b1b49e0e71d2a90E', symObjAddr: 0x78354, symBinAddr: 0x790CC, symSize: 0x8 }
  - { offsetInCU: 0x16F1C, offset: 0x760B8, size: 0x8, addend: 0x0, symName: '__ZN4core3ptr131drop_in_place$LT$alloc..boxed..Box$LT$dyn$u20$core..ops..function..FnOnce$LT$$LP$$RP$$GT$$u2b$Output$u20$$u3d$$u20$$LP$$RP$$GT$$GT$17h3086748aec039692E', symObjAddr: 0x78558, symBinAddr: 0x792D0, symSize: 0x60 }
  - { offsetInCU: 0x16F24, offset: 0x760C0, size: 0x8, addend: 0x0, symName: '__ZN68_$LT$std..thread..local..AccessError$u20$as$u20$core..fmt..Debug$GT$3fmt17hc0f1e950e7e5af0cE', symObjAddr: 0x785B8, symBinAddr: 0x79330, symSize: 0x18 }
  - { offsetInCU: 0x16FB8, offset: 0x76154, size: 0x8, addend: 0x0, symName: '__ZN4core3ptr112drop_in_place$LT$alloc..boxed..Box$LT$std..thread..local..os..Value$LT$core..cell..Cell$LT$usize$GT$$GT$$GT$$GT$17hb940828ac14f5d55E', symObjAddr: 0x78634, symBinAddr: 0x793AC, symSize: 0x4 }
  - { offsetInCU: 0x16FC0, offset: 0x7615C, size: 0x8, addend: 0x0, symName: __ZN4core9panicking13assert_failed17h54031cfe3ac2059fE, symObjAddr: 0x78638, symBinAddr: 0xBEF88, symSize: 0x40 }
  - { offsetInCU: 0x16FD5, offset: 0x76171, size: 0x8, addend: 0x0, symName: '__ZN4core3ptr112drop_in_place$LT$alloc..boxed..Box$LT$std..thread..local..os..Value$LT$core..cell..Cell$LT$usize$GT$$GT$$GT$$GT$17hb940828ac14f5d55E', symObjAddr: 0x78634, symBinAddr: 0x793AC, symSize: 0x4 }
  - { offsetInCU: 0x16FDD, offset: 0x76179, size: 0x8, addend: 0x0, symName: __ZN4core9panicking13assert_failed17h54031cfe3ac2059fE, symObjAddr: 0x78638, symBinAddr: 0xBEF88, symSize: 0x40 }
  - { offsetInCU: 0x16FEF, offset: 0x7618B, size: 0x8, addend: 0x0, symName: '__ZN4core3ptr112drop_in_place$LT$alloc..boxed..Box$LT$std..thread..local..os..Value$LT$core..cell..Cell$LT$usize$GT$$GT$$GT$$GT$17hb940828ac14f5d55E', symObjAddr: 0x78634, symBinAddr: 0x793AC, symSize: 0x4 }
  - { offsetInCU: 0x16FF7, offset: 0x76193, size: 0x8, addend: 0x0, symName: __ZN4core9panicking13assert_failed17h54031cfe3ac2059fE, symObjAddr: 0x78638, symBinAddr: 0xBEF88, symSize: 0x40 }
  - { offsetInCU: 0x17009, offset: 0x761A5, size: 0x8, addend: 0x0, symName: '__ZN4core3ptr112drop_in_place$LT$alloc..boxed..Box$LT$std..thread..local..os..Value$LT$core..cell..Cell$LT$usize$GT$$GT$$GT$$GT$17hb940828ac14f5d55E', symObjAddr: 0x78634, symBinAddr: 0x793AC, symSize: 0x4 }
  - { offsetInCU: 0x17011, offset: 0x761AD, size: 0x8, addend: 0x0, symName: __ZN4core9panicking13assert_failed17h54031cfe3ac2059fE, symObjAddr: 0x78638, symBinAddr: 0xBEF88, symSize: 0x40 }
  - { offsetInCU: 0x17022, offset: 0x761BE, size: 0x8, addend: 0x0, symName: '__ZN4core3ptr112drop_in_place$LT$alloc..boxed..Box$LT$std..thread..local..os..Value$LT$core..cell..Cell$LT$usize$GT$$GT$$GT$$GT$17hb940828ac14f5d55E', symObjAddr: 0x78634, symBinAddr: 0x793AC, symSize: 0x4 }
  - { offsetInCU: 0x1702A, offset: 0x761C6, size: 0x8, addend: 0x0, symName: __ZN4core9panicking13assert_failed17h54031cfe3ac2059fE, symObjAddr: 0x78638, symBinAddr: 0xBEF88, symSize: 0x40 }
  - { offsetInCU: 0x1703B, offset: 0x761D7, size: 0x8, addend: 0x0, symName: '__ZN4core3ptr112drop_in_place$LT$alloc..boxed..Box$LT$std..thread..local..os..Value$LT$core..cell..Cell$LT$usize$GT$$GT$$GT$$GT$17hb940828ac14f5d55E', symObjAddr: 0x78634, symBinAddr: 0x793AC, symSize: 0x4 }
  - { offsetInCU: 0x17043, offset: 0x761DF, size: 0x8, addend: 0x0, symName: __ZN4core9panicking13assert_failed17h54031cfe3ac2059fE, symObjAddr: 0x78638, symBinAddr: 0xBEF88, symSize: 0x40 }
  - { offsetInCU: 0x17217, offset: 0x763B3, size: 0x8, addend: 0x0, symName: '__ZN4core3ptr168drop_in_place$LT$alloc..boxed..Box$LT$std..thread..local..os..Value$LT$core..cell..Cell$LT$core..option..Option$LT$std..sync..mpmc..context..Context$GT$$GT$$GT$$GT$$GT$17h87f2eaef0daadf38E', symObjAddr: 0x78A58, symBinAddr: 0x79790, symSize: 0x54 }
  - { offsetInCU: 0x1721F, offset: 0x763BB, size: 0x8, addend: 0x0, symName: '__ZN5alloc4sync12Arc$LT$T$GT$9drop_slow17hd82c010b1c5f3578E', symObjAddr: 0x78AAC, symBinAddr: 0x797E4, symSize: 0x74 }
  - { offsetInCU: 0x17398, offset: 0x76534, size: 0x8, addend: 0x0, symName: '__ZN5alloc4sync12Arc$LT$T$GT$9drop_slow17hd82c010b1c5f3578E', symObjAddr: 0x78AAC, symBinAddr: 0x797E4, symSize: 0x74 }
  - { offsetInCU: 0x173B2, offset: 0x7654E, size: 0x8, addend: 0x0, symName: '__ZN5alloc4sync12Arc$LT$T$GT$9drop_slow17hd82c010b1c5f3578E', symObjAddr: 0x78AAC, symBinAddr: 0x797E4, symSize: 0x74 }
  - { offsetInCU: 0x173CC, offset: 0x76568, size: 0x8, addend: 0x0, symName: '__ZN5alloc4sync12Arc$LT$T$GT$9drop_slow17hd82c010b1c5f3578E', symObjAddr: 0x78AAC, symBinAddr: 0x797E4, symSize: 0x74 }
  - { offsetInCU: 0x173E5, offset: 0x76581, size: 0x8, addend: 0x0, symName: '__ZN5alloc4sync12Arc$LT$T$GT$9drop_slow17hd82c010b1c5f3578E', symObjAddr: 0x78AAC, symBinAddr: 0x797E4, symSize: 0x74 }
  - { offsetInCU: 0x173FE, offset: 0x7659A, size: 0x8, addend: 0x0, symName: '__ZN5alloc4sync12Arc$LT$T$GT$9drop_slow17hd82c010b1c5f3578E', symObjAddr: 0x78AAC, symBinAddr: 0x797E4, symSize: 0x74 }
  - { offsetInCU: 0x174B6, offset: 0x76652, size: 0x8, addend: 0x0, symName: '__ZN4core3ptr47drop_in_place$LT$alloc..ffi..c_str..CString$GT$17hc3079ac178ffe7b9E', symObjAddr: 0x78CB8, symBinAddr: 0x799F0, symSize: 0x1C }
  - { offsetInCU: 0x174BE, offset: 0x7665A, size: 0x8, addend: 0x0, symName: '__ZN4core3ptr115drop_in_place$LT$core..cell..RefMut$LT$core..option..Option$LT$std..sys_common..thread_info..ThreadInfo$GT$$GT$$GT$17hd75600bd0e75f06eE', symObjAddr: 0x78CD4, symBinAddr: 0x79A0C, symSize: 0x10 }
  - { offsetInCU: 0x17583, offset: 0x7671F, size: 0x8, addend: 0x0, symName: '__ZN4core3ptr115drop_in_place$LT$core..cell..RefMut$LT$core..option..Option$LT$std..sys_common..thread_info..ThreadInfo$GT$$GT$$GT$17hd75600bd0e75f06eE', symObjAddr: 0x78CD4, symBinAddr: 0x79A0C, symSize: 0x10 }
  - { offsetInCU: 0x1758B, offset: 0x76727, size: 0x8, addend: 0x0, symName: __ZN3std6thread7current17h006548679239cce4E, symObjAddr: 0x78CE4, symBinAddr: 0x79A1C, symSize: 0xD4 }
  - { offsetInCU: 0x175A0, offset: 0x7673C, size: 0x8, addend: 0x0, symName: '__ZN4core3ptr115drop_in_place$LT$core..cell..RefMut$LT$core..option..Option$LT$std..sys_common..thread_info..ThreadInfo$GT$$GT$$GT$17hd75600bd0e75f06eE', symObjAddr: 0x78CD4, symBinAddr: 0x79A0C, symSize: 0x10 }
  - { offsetInCU: 0x175BA, offset: 0x76756, size: 0x8, addend: 0x0, symName: '__ZN4core3ptr115drop_in_place$LT$core..cell..RefMut$LT$core..option..Option$LT$std..sys_common..thread_info..ThreadInfo$GT$$GT$$GT$17hd75600bd0e75f06eE', symObjAddr: 0x78CD4, symBinAddr: 0x79A0C, symSize: 0x10 }
  - { offsetInCU: 0x175D4, offset: 0x76770, size: 0x8, addend: 0x0, symName: '__ZN4core3ptr115drop_in_place$LT$core..cell..RefMut$LT$core..option..Option$LT$std..sys_common..thread_info..ThreadInfo$GT$$GT$$GT$17hd75600bd0e75f06eE', symObjAddr: 0x78CD4, symBinAddr: 0x79A0C, symSize: 0x10 }
  - { offsetInCU: 0x17667, offset: 0x76803, size: 0x8, addend: 0x0, symName: '__ZN4core3ptr44drop_in_place$LT$std..thread..PanicGuard$GT$17h96e14951fe9f0916E', symObjAddr: 0x78DB8, symBinAddr: 0x79AF0, symSize: 0x6C }
  - { offsetInCU: 0x1766F, offset: 0x7680B, size: 0x8, addend: 0x0, symName: __ZN3std10sys_common11thread_info11THREAD_INFO7__getit17ha76c62709d165589E, symObjAddr: 0x78E24, symBinAddr: 0x79B5C, symSize: 0x134 }
  - { offsetInCU: 0x17693, offset: 0x7682F, size: 0x8, addend: 0x0, symName: __ZN3std10sys_common11thread_info11THREAD_INFO7__getit17ha76c62709d165589E, symObjAddr: 0x78E24, symBinAddr: 0x79B5C, symSize: 0x134 }
  - { offsetInCU: 0x1776D, offset: 0x76909, size: 0x8, addend: 0x0, symName: '__ZN4core3ptr178drop_in_place$LT$alloc..boxed..Box$LT$std..thread..local..os..Value$LT$core..cell..RefCell$LT$core..option..Option$LT$std..sys_common..thread_info..ThreadInfo$GT$$GT$$GT$$GT$$GT$17ha74319de64ca7736E', symObjAddr: 0x79000, symBinAddr: 0x79D38, symSize: 0x5C }
  - { offsetInCU: 0x17775, offset: 0x76911, size: 0x8, addend: 0x0, symName: '__ZN3std10sys_common8lazy_box16LazyBox$LT$T$GT$10initialize17h0a6ada2f0edc98e6E', symObjAddr: 0x7905C, symBinAddr: 0xBEFC8, symSize: 0x6C }
  - { offsetInCU: 0x17959, offset: 0x76AF5, size: 0x8, addend: 0x0, symName: '__ZN3std10sys_common8lazy_box16LazyBox$LT$T$GT$10initialize17h0a6ada2f0edc98e6E', symObjAddr: 0x7905C, symBinAddr: 0xBEFC8, symSize: 0x6C }
  - { offsetInCU: 0x17973, offset: 0x76B0F, size: 0x8, addend: 0x0, symName: '__ZN3std10sys_common8lazy_box16LazyBox$LT$T$GT$10initialize17h0a6ada2f0edc98e6E', symObjAddr: 0x7905C, symBinAddr: 0xBEFC8, symSize: 0x6C }
  - { offsetInCU: 0x1798D, offset: 0x76B29, size: 0x8, addend: 0x0, symName: '__ZN3std10sys_common8lazy_box16LazyBox$LT$T$GT$10initialize17h0a6ada2f0edc98e6E', symObjAddr: 0x7905C, symBinAddr: 0xBEFC8, symSize: 0x6C }
  - { offsetInCU: 0x179A6, offset: 0x76B42, size: 0x8, addend: 0x0, symName: '__ZN3std10sys_common8lazy_box16LazyBox$LT$T$GT$10initialize17h0a6ada2f0edc98e6E', symObjAddr: 0x7905C, symBinAddr: 0xBEFC8, symSize: 0x6C }
  - { offsetInCU: 0x179BF, offset: 0x76B5B, size: 0x8, addend: 0x0, symName: '__ZN3std10sys_common8lazy_box16LazyBox$LT$T$GT$10initialize17h0a6ada2f0edc98e6E', symObjAddr: 0x7905C, symBinAddr: 0xBEFC8, symSize: 0x6C }
  - { offsetInCU: 0x179FF, offset: 0x76B9B, size: 0x8, addend: 0x0, symName: '__ZN4core3ptr73drop_in_place$LT$std..sys..unix..locks..pthread_mutex..AllocatedMutex$GT$17h9df20e29dea15b33E', symObjAddr: 0x79274, symBinAddr: 0x79F40, symSize: 0x4 }
  - { offsetInCU: 0x17A07, offset: 0x76BA3, size: 0x8, addend: 0x0, symName: '__ZN4core3ptr98drop_in_place$LT$alloc..boxed..Box$LT$std..sys..unix..locks..pthread_mutex..AllocatedMutex$GT$$GT$17h24ee40f898051ee6E', symObjAddr: 0x79278, symBinAddr: 0x79F44, symSize: 0x28 }
  - { offsetInCU: 0x17A1C, offset: 0x76BB8, size: 0x8, addend: 0x0, symName: '__ZN4core3ptr73drop_in_place$LT$std..sys..unix..locks..pthread_mutex..AllocatedMutex$GT$17h9df20e29dea15b33E', symObjAddr: 0x79274, symBinAddr: 0x79F40, symSize: 0x4 }
  - { offsetInCU: 0x17A24, offset: 0x76BC0, size: 0x8, addend: 0x0, symName: '__ZN4core3ptr98drop_in_place$LT$alloc..boxed..Box$LT$std..sys..unix..locks..pthread_mutex..AllocatedMutex$GT$$GT$17h24ee40f898051ee6E', symObjAddr: 0x79278, symBinAddr: 0x79F44, symSize: 0x28 }
  - { offsetInCU: 0x17A33, offset: 0x76BCF, size: 0x8, addend: 0x0, symName: '__ZN4core3ptr98drop_in_place$LT$alloc..boxed..Box$LT$std..sys..unix..locks..pthread_mutex..AllocatedMutex$GT$$GT$17h24ee40f898051ee6E', symObjAddr: 0x79278, symBinAddr: 0x79F44, symSize: 0x28 }
  - { offsetInCU: 0x17A3B, offset: 0x76BD7, size: 0x8, addend: 0x0, symName: '__ZN4core3ptr42drop_in_place$LT$std..io..error..Error$GT$17hcedd90610532fafbE', symObjAddr: 0x792A0, symBinAddr: 0x79F6C, symSize: 0x88 }
  - { offsetInCU: 0x17A8C, offset: 0x76C28, size: 0x8, addend: 0x0, symName: '__ZN4core3ptr42drop_in_place$LT$std..io..error..Error$GT$17hcedd90610532fafbE', symObjAddr: 0x792A0, symBinAddr: 0x79F6C, symSize: 0x88 }
  - { offsetInCU: 0x17AA6, offset: 0x76C42, size: 0x8, addend: 0x0, symName: '__ZN4core3ptr42drop_in_place$LT$std..io..error..Error$GT$17hcedd90610532fafbE', symObjAddr: 0x792A0, symBinAddr: 0x79F6C, symSize: 0x88 }
  - { offsetInCU: 0x17AC0, offset: 0x76C5C, size: 0x8, addend: 0x0, symName: '__ZN4core3ptr42drop_in_place$LT$std..io..error..Error$GT$17hcedd90610532fafbE', symObjAddr: 0x792A0, symBinAddr: 0x79F6C, symSize: 0x88 }
  - { offsetInCU: 0x17AD9, offset: 0x76C75, size: 0x8, addend: 0x0, symName: '__ZN4core3ptr42drop_in_place$LT$std..io..error..Error$GT$17hcedd90610532fafbE', symObjAddr: 0x792A0, symBinAddr: 0x79F6C, symSize: 0x88 }
  - { offsetInCU: 0x17AF2, offset: 0x76C8E, size: 0x8, addend: 0x0, symName: '__ZN4core3ptr42drop_in_place$LT$std..io..error..Error$GT$17hcedd90610532fafbE', symObjAddr: 0x792A0, symBinAddr: 0x79F6C, symSize: 0x88 }
  - { offsetInCU: 0x17B05, offset: 0x76CA1, size: 0x8, addend: 0x0, symName: '__ZN4core3ptr42drop_in_place$LT$std..io..error..Error$GT$17hcedd90610532fafbE', symObjAddr: 0x792A0, symBinAddr: 0x79F6C, symSize: 0x88 }
  - { offsetInCU: 0x17B0D, offset: 0x76CA9, size: 0x8, addend: 0x0, symName: '__ZN4core3ptr75drop_in_place$LT$std..sys..unix..locks..pthread_mutex..PthreadMutexAttr$GT$17h1044887d1b40be41E', symObjAddr: 0x79328, symBinAddr: 0x79FF4, symSize: 0x4 }
  - { offsetInCU: 0x17C80, offset: 0x76E1C, size: 0x8, addend: 0x0, symName: '__ZN4core3ptr75drop_in_place$LT$std..sys..unix..locks..pthread_mutex..PthreadMutexAttr$GT$17h1044887d1b40be41E', symObjAddr: 0x79328, symBinAddr: 0x79FF4, symSize: 0x4 }
  - { offsetInCU: 0x17C88, offset: 0x76E24, size: 0x8, addend: 0x0, symName: '__ZN58_$LT$std..io..error..Error$u20$as$u20$core..fmt..Debug$GT$3fmt17h908002498e26c66aE', symObjAddr: 0x7932C, symBinAddr: 0x79FF8, symSize: 0x474 }
  - { offsetInCU: 0x17C9D, offset: 0x76E39, size: 0x8, addend: 0x0, symName: '__ZN4core3ptr75drop_in_place$LT$std..sys..unix..locks..pthread_mutex..PthreadMutexAttr$GT$17h1044887d1b40be41E', symObjAddr: 0x79328, symBinAddr: 0x79FF4, symSize: 0x4 }
  - { offsetInCU: 0x17CA5, offset: 0x76E41, size: 0x8, addend: 0x0, symName: '__ZN58_$LT$std..io..error..Error$u20$as$u20$core..fmt..Debug$GT$3fmt17h908002498e26c66aE', symObjAddr: 0x7932C, symBinAddr: 0x79FF8, symSize: 0x474 }
  - { offsetInCU: 0x17CE1, offset: 0x76E7D, size: 0x8, addend: 0x0, symName: '__ZN4core3ptr205drop_in_place$LT$$LT$alloc..boxed..Box$LT$dyn$u20$core..error..Error$u2b$core..marker..Send$u2b$core..marker..Sync$GT$$u20$as$u20$core..convert..From$LT$alloc..string..String$GT$$GT$..from..StringError$GT$17hf9f7e7ff8572804eE', symObjAddr: 0x797A0, symBinAddr: 0x7A46C, symSize: 0x14 }
  - { offsetInCU: 0x17CE9, offset: 0x76E85, size: 0x8, addend: 0x0, symName: '__ZN42_$LT$$RF$T$u20$as$u20$core..fmt..Debug$GT$3fmt17hcf6fe0208e866a8dE', symObjAddr: 0x797B4, symBinAddr: 0x7A480, symSize: 0x10 }
  - { offsetInCU: 0x17D06, offset: 0x76EA2, size: 0x8, addend: 0x0, symName: '__ZN4core3ptr205drop_in_place$LT$$LT$alloc..boxed..Box$LT$dyn$u20$core..error..Error$u2b$core..marker..Send$u2b$core..marker..Sync$GT$$u20$as$u20$core..convert..From$LT$alloc..string..String$GT$$GT$..from..StringError$GT$17hf9f7e7ff8572804eE', symObjAddr: 0x797A0, symBinAddr: 0x7A46C, symSize: 0x14 }
  - { offsetInCU: 0x17D20, offset: 0x76EBC, size: 0x8, addend: 0x0, symName: '__ZN4core3ptr205drop_in_place$LT$$LT$alloc..boxed..Box$LT$dyn$u20$core..error..Error$u2b$core..marker..Send$u2b$core..marker..Sync$GT$$u20$as$u20$core..convert..From$LT$alloc..string..String$GT$$GT$..from..StringError$GT$17hf9f7e7ff8572804eE', symObjAddr: 0x797A0, symBinAddr: 0x7A46C, symSize: 0x14 }
  - { offsetInCU: 0x17DDA, offset: 0x76F76, size: 0x8, addend: 0x0, symName: '__ZN4core3ptr40drop_in_place$LT$std..thread..Thread$GT$17ha7d6f8272dcec9acE', symObjAddr: 0x79938, symBinAddr: 0x7A604, symSize: 0x28 }
  - { offsetInCU: 0x17DE2, offset: 0x76F7E, size: 0x8, addend: 0x0, symName: __ZN3std6thread8ThreadId3new9exhausted17ha53c1a8f751f3ee2E, symObjAddr: 0x79960, symBinAddr: 0xBF034, symSize: 0x3C }
  - { offsetInCU: 0x17DF7, offset: 0x76F93, size: 0x8, addend: 0x0, symName: '__ZN4core3ptr40drop_in_place$LT$std..thread..Thread$GT$17ha7d6f8272dcec9acE', symObjAddr: 0x79938, symBinAddr: 0x7A604, symSize: 0x28 }
  - { offsetInCU: 0x17E11, offset: 0x76FAD, size: 0x8, addend: 0x0, symName: '__ZN4core3ptr40drop_in_place$LT$std..thread..Thread$GT$17ha7d6f8272dcec9acE', symObjAddr: 0x79938, symBinAddr: 0x7A604, symSize: 0x28 }
  - { offsetInCU: 0x17E2B, offset: 0x76FC7, size: 0x8, addend: 0x0, symName: '__ZN4core3ptr40drop_in_place$LT$std..thread..Thread$GT$17ha7d6f8272dcec9acE', symObjAddr: 0x79938, symBinAddr: 0x7A604, symSize: 0x28 }
  - { offsetInCU: 0x17E45, offset: 0x76FE1, size: 0x8, addend: 0x0, symName: '__ZN4core3ptr40drop_in_place$LT$std..thread..Thread$GT$17ha7d6f8272dcec9acE', symObjAddr: 0x79938, symBinAddr: 0x7A604, symSize: 0x28 }
  - { offsetInCU: 0x17E5F, offset: 0x76FFB, size: 0x8, addend: 0x0, symName: '__ZN4core3ptr40drop_in_place$LT$std..thread..Thread$GT$17ha7d6f8272dcec9acE', symObjAddr: 0x79938, symBinAddr: 0x7A604, symSize: 0x28 }
  - { offsetInCU: 0x17EC9, offset: 0x77065, size: 0x8, addend: 0x0, symName: '__ZN4core3ptr107drop_in_place$LT$alloc..sync..Arc$LT$core..mem..maybe_uninit..MaybeUninit$LT$std..thread..Inner$GT$$GT$$GT$17hbd6a882f7eb6a72bE', symObjAddr: 0x7999C, symBinAddr: 0x7A62C, symSize: 0x28 }
  - { offsetInCU: 0x17ED1, offset: 0x7706D, size: 0x8, addend: 0x0, symName: '__ZN4core3ptr75drop_in_place$LT$core..option..Option$LT$alloc..ffi..c_str..CString$GT$$GT$17hcbc78d207442ebdaE', symObjAddr: 0x799C4, symBinAddr: 0x7A654, symSize: 0x20 }
  - { offsetInCU: 0x17EEE, offset: 0x7708A, size: 0x8, addend: 0x0, symName: '__ZN4core3ptr107drop_in_place$LT$alloc..sync..Arc$LT$core..mem..maybe_uninit..MaybeUninit$LT$std..thread..Inner$GT$$GT$$GT$17hbd6a882f7eb6a72bE', symObjAddr: 0x7999C, symBinAddr: 0x7A62C, symSize: 0x28 }
  - { offsetInCU: 0x17F08, offset: 0x770A4, size: 0x8, addend: 0x0, symName: '__ZN4core3ptr107drop_in_place$LT$alloc..sync..Arc$LT$core..mem..maybe_uninit..MaybeUninit$LT$std..thread..Inner$GT$$GT$$GT$17hbd6a882f7eb6a72bE', symObjAddr: 0x7999C, symBinAddr: 0x7A62C, symSize: 0x28 }
  - { offsetInCU: 0x17F22, offset: 0x770BE, size: 0x8, addend: 0x0, symName: '__ZN4core3ptr107drop_in_place$LT$alloc..sync..Arc$LT$core..mem..maybe_uninit..MaybeUninit$LT$std..thread..Inner$GT$$GT$$GT$17hbd6a882f7eb6a72bE', symObjAddr: 0x7999C, symBinAddr: 0x7A62C, symSize: 0x28 }
  - { offsetInCU: 0x17F8A, offset: 0x77126, size: 0x8, addend: 0x0, symName: '__ZN4core3ptr75drop_in_place$LT$core..option..Option$LT$alloc..ffi..c_str..CString$GT$$GT$17hcbc78d207442ebdaE', symObjAddr: 0x799C4, symBinAddr: 0x7A654, symSize: 0x20 }
  - { offsetInCU: 0x17F92, offset: 0x7712E, size: 0x8, addend: 0x0, symName: '__ZN5alloc4sync12Arc$LT$T$GT$9drop_slow17hd5dd474e53f63070E', symObjAddr: 0x799E4, symBinAddr: 0x7A674, symSize: 0x2C }
  - { offsetInCU: 0x18063, offset: 0x771FF, size: 0x8, addend: 0x0, symName: '__ZN4core3ptr50drop_in_place$LT$alloc..borrow..Cow$LT$str$GT$$GT$17h3e6e2ed0215557e9E', symObjAddr: 0x7A194, symBinAddr: 0x7AE24, symSize: 0x1C }
  - { offsetInCU: 0x1806B, offset: 0x77207, size: 0x8, addend: 0x0, symName: '__ZN44_$LT$$RF$T$u20$as$u20$core..fmt..Display$GT$3fmt17h1e57fa1372b5b9acE', symObjAddr: 0x7A1B0, symBinAddr: 0x7AE40, symSize: 0x10 }
  - { offsetInCU: 0x18163, offset: 0x772FF, size: 0x8, addend: 0x0, symName: '__ZN4core3ptr46drop_in_place$LT$std..io..stdio..StdinLock$GT$17h66e6c63ee729ee55E', symObjAddr: 0x7AF70, symBinAddr: 0x7BAF4, symSize: 0x5C }
  - { offsetInCU: 0x1816B, offset: 0x77307, size: 0x8, addend: 0x0, symName: '__ZN4core3ptr88drop_in_place$LT$alloc..vec..Vec$LT$std..backtrace_rs..symbolize..gimli..Library$GT$$GT$17h09e9047651e33aedE', symObjAddr: 0x7AFCC, symBinAddr: 0x7BB50, symSize: 0x8C }
  - { offsetInCU: 0x1818F, offset: 0x7732B, size: 0x8, addend: 0x0, symName: '__ZN4core3ptr88drop_in_place$LT$alloc..vec..Vec$LT$std..backtrace_rs..symbolize..gimli..Library$GT$$GT$17h09e9047651e33aedE', symObjAddr: 0x7AFCC, symBinAddr: 0x7BB50, symSize: 0x8C }
  - { offsetInCU: 0x181A9, offset: 0x77345, size: 0x8, addend: 0x0, symName: '__ZN4core3ptr88drop_in_place$LT$alloc..vec..Vec$LT$std..backtrace_rs..symbolize..gimli..Library$GT$$GT$17h09e9047651e33aedE', symObjAddr: 0x7AFCC, symBinAddr: 0x7BB50, symSize: 0x8C }
  - { offsetInCU: 0x18232, offset: 0x773CE, size: 0x8, addend: 0x0, symName: '__ZN4core3ptr88drop_in_place$LT$alloc..vec..Vec$LT$std..backtrace_rs..symbolize..gimli..Library$GT$$GT$17h09e9047651e33aedE', symObjAddr: 0x7AFCC, symBinAddr: 0x7BB50, symSize: 0x8C }
  - { offsetInCU: 0x1824B, offset: 0x773E7, size: 0x8, addend: 0x0, symName: '__ZN4core3ptr88drop_in_place$LT$alloc..vec..Vec$LT$std..backtrace_rs..symbolize..gimli..Library$GT$$GT$17h09e9047651e33aedE', symObjAddr: 0x7AFCC, symBinAddr: 0x7BB50, symSize: 0x8C }
  - { offsetInCU: 0x18340, offset: 0x774DC, size: 0x8, addend: 0x0, symName: '__ZN4core3ptr88drop_in_place$LT$alloc..vec..Vec$LT$std..backtrace_rs..symbolize..gimli..Library$GT$$GT$17h09e9047651e33aedE', symObjAddr: 0x7AFCC, symBinAddr: 0x7BB50, symSize: 0x8C }
  - { offsetInCU: 0x18348, offset: 0x774E4, size: 0x8, addend: 0x0, symName: '__ZN4core3ptr60drop_in_place$LT$alloc..vec..Vec$LT$$RF$$u5b$u8$u5d$$GT$$GT$17h634e5cd504a52b19E', symObjAddr: 0x7B058, symBinAddr: 0x7BBDC, symSize: 0x10 }
  - { offsetInCU: 0x185BC, offset: 0x77758, size: 0x8, addend: 0x0, symName: '__ZN4core3ptr60drop_in_place$LT$alloc..vec..Vec$LT$$RF$$u5b$u8$u5d$$GT$$GT$17h634e5cd504a52b19E', symObjAddr: 0x7B058, symBinAddr: 0x7BBDC, symSize: 0x10 }
  - { offsetInCU: 0x185C4, offset: 0x77760, size: 0x8, addend: 0x0, symName: '__ZN5alloc7raw_vec19RawVec$LT$T$C$A$GT$7reserve21do_reserve_and_handle17h354926ce5c387596E', symObjAddr: 0x7B068, symBinAddr: 0xBF17C, symSize: 0xD4 }
  - { offsetInCU: 0x185D9, offset: 0x77775, size: 0x8, addend: 0x0, symName: '__ZN4core3ptr60drop_in_place$LT$alloc..vec..Vec$LT$$RF$$u5b$u8$u5d$$GT$$GT$17h634e5cd504a52b19E', symObjAddr: 0x7B058, symBinAddr: 0x7BBDC, symSize: 0x10 }
  - { offsetInCU: 0x185F3, offset: 0x7778F, size: 0x8, addend: 0x0, symName: '__ZN4core3ptr60drop_in_place$LT$alloc..vec..Vec$LT$$RF$$u5b$u8$u5d$$GT$$GT$17h634e5cd504a52b19E', symObjAddr: 0x7B058, symBinAddr: 0x7BBDC, symSize: 0x10 }
  - { offsetInCU: 0x1860D, offset: 0x777A9, size: 0x8, addend: 0x0, symName: '__ZN4core3ptr60drop_in_place$LT$alloc..vec..Vec$LT$$RF$$u5b$u8$u5d$$GT$$GT$17h634e5cd504a52b19E', symObjAddr: 0x7B058, symBinAddr: 0x7BBDC, symSize: 0x10 }
  - { offsetInCU: 0x186AD, offset: 0x77849, size: 0x8, addend: 0x0, symName: '__ZN4core3ptr95drop_in_place$LT$core..option..IntoIter$LT$std..backtrace_rs..symbolize..gimli..Library$GT$$GT$17h662e7a502df1a2abE', symObjAddr: 0x7B13C, symBinAddr: 0x7BBEC, symSize: 0x48 }
  - { offsetInCU: 0x186B5, offset: 0x77851, size: 0x8, addend: 0x0, symName: '__ZN4core3ptr104drop_in_place$LT$alloc..vec..Vec$LT$$LP$usize$C$std..backtrace_rs..symbolize..gimli..Mapping$RP$$GT$$GT$17h6665d7b9362de949E', symObjAddr: 0x7B184, symBinAddr: 0x7BC34, symSize: 0xAC }
  - { offsetInCU: 0x18912, offset: 0x77AAE, size: 0x8, addend: 0x0, symName: '__ZN4core3ptr104drop_in_place$LT$alloc..vec..Vec$LT$$LP$usize$C$std..backtrace_rs..symbolize..gimli..Mapping$RP$$GT$$GT$17h6665d7b9362de949E', symObjAddr: 0x7B184, symBinAddr: 0x7BC34, symSize: 0xAC }
  - { offsetInCU: 0x1891A, offset: 0x77AB6, size: 0x8, addend: 0x0, symName: __ZN3std12backtrace_rs9symbolize5gimli4mmap17h7118c1518479761cE, symObjAddr: 0x7B230, symBinAddr: 0x7BCE0, symSize: 0x1F0 }
  - { offsetInCU: 0x18A1B, offset: 0x77BB7, size: 0x8, addend: 0x0, symName: '__ZN4core3ptr68drop_in_place$LT$std..backtrace_rs..symbolize..gimli..mmap..Mmap$GT$17hecb7aac36dc2b89bE', symObjAddr: 0x7B420, symBinAddr: 0x7BED0, symSize: 0x4 }
  - { offsetInCU: 0x18A23, offset: 0x77BBF, size: 0x8, addend: 0x0, symName: __ZN3std12backtrace_rs9symbolize5gimli5macho11find_header17hd790544a66feaa52E, symObjAddr: 0x7B424, symBinAddr: 0x7BED4, symSize: 0x1CC }
  - { offsetInCU: 0x18A38, offset: 0x77BD4, size: 0x8, addend: 0x0, symName: '__ZN4core3ptr68drop_in_place$LT$std..backtrace_rs..symbolize..gimli..mmap..Mmap$GT$17hecb7aac36dc2b89bE', symObjAddr: 0x7B420, symBinAddr: 0x7BED0, symSize: 0x4 }
  - { offsetInCU: 0x18A40, offset: 0x77BDC, size: 0x8, addend: 0x0, symName: __ZN3std12backtrace_rs9symbolize5gimli5macho11find_header17hd790544a66feaa52E, symObjAddr: 0x7B424, symBinAddr: 0x7BED4, symSize: 0x1CC }
  - { offsetInCU: 0x18AB8, offset: 0x77C54, size: 0x8, addend: 0x0, symName: '__ZN4core3ptr70drop_in_place$LT$std..backtrace_rs..symbolize..gimli..stash..Stash$GT$17h5accef22fef23802E', symObjAddr: 0x7BBB0, symBinAddr: 0x7C660, symSize: 0x8C }
  - { offsetInCU: 0x18AC0, offset: 0x77C5C, size: 0x8, addend: 0x0, symName: __ZN3std12backtrace_rs9symbolize5gimli5macho6Object5parse17h9280987050fd0b43E, symObjAddr: 0x7BC3C, symBinAddr: 0x7C6EC, symSize: 0xB50 }
  - { offsetInCU: 0x18E4C, offset: 0x77FE8, size: 0x8, addend: 0x0, symName: '__ZN4core3ptr37drop_in_place$LT$std..fs..ReadDir$GT$17h6cf69937c5e4a77dE', symObjAddr: 0x7D35C, symBinAddr: 0x7DE0C, symSize: 0x28 }
  - { offsetInCU: 0x18E54, offset: 0x77FF0, size: 0x8, addend: 0x0, symName: '__ZN5alloc4sync12Arc$LT$T$GT$9drop_slow17hc21a7bfa2387b952E', symObjAddr: 0x7D384, symBinAddr: 0x7DE34, symSize: 0x7C }
  - { offsetInCU: 0x18E69, offset: 0x78005, size: 0x8, addend: 0x0, symName: '__ZN4core3ptr37drop_in_place$LT$std..fs..ReadDir$GT$17h6cf69937c5e4a77dE', symObjAddr: 0x7D35C, symBinAddr: 0x7DE0C, symSize: 0x28 }
  - { offsetInCU: 0x18E83, offset: 0x7801F, size: 0x8, addend: 0x0, symName: '__ZN4core3ptr37drop_in_place$LT$std..fs..ReadDir$GT$17h6cf69937c5e4a77dE', symObjAddr: 0x7D35C, symBinAddr: 0x7DE0C, symSize: 0x28 }
  - { offsetInCU: 0x18E9D, offset: 0x78039, size: 0x8, addend: 0x0, symName: '__ZN4core3ptr37drop_in_place$LT$std..fs..ReadDir$GT$17h6cf69937c5e4a77dE', symObjAddr: 0x7D35C, symBinAddr: 0x7DE0C, symSize: 0x28 }
  - { offsetInCU: 0x18EB7, offset: 0x78053, size: 0x8, addend: 0x0, symName: '__ZN4core3ptr37drop_in_place$LT$std..fs..ReadDir$GT$17h6cf69937c5e4a77dE', symObjAddr: 0x7D35C, symBinAddr: 0x7DE0C, symSize: 0x28 }
  - { offsetInCU: 0x18ED1, offset: 0x7806D, size: 0x8, addend: 0x0, symName: '__ZN4core3ptr37drop_in_place$LT$std..fs..ReadDir$GT$17h6cf69937c5e4a77dE', symObjAddr: 0x7D35C, symBinAddr: 0x7DE0C, symSize: 0x28 }
  - { offsetInCU: 0x18F77, offset: 0x78113, size: 0x8, addend: 0x0, symName: '__ZN4core3ptr38drop_in_place$LT$std..fs..DirEntry$GT$17h5f7115a8597ce001E', symObjAddr: 0x7D400, symBinAddr: 0x7DEB0, symSize: 0x28 }
  - { offsetInCU: 0x18F7F, offset: 0x7811B, size: 0x8, addend: 0x0, symName: __ZN3std3sys4unix6os_str3Buf11into_string17h1b7a070c36b36de9E, symObjAddr: 0x7D428, symBinAddr: 0x7DED8, symSize: 0xCC }
  - { offsetInCU: 0x18F94, offset: 0x78130, size: 0x8, addend: 0x0, symName: '__ZN4core3ptr38drop_in_place$LT$std..fs..DirEntry$GT$17h5f7115a8597ce001E', symObjAddr: 0x7D400, symBinAddr: 0x7DEB0, symSize: 0x28 }
  - { offsetInCU: 0x18FAE, offset: 0x7814A, size: 0x8, addend: 0x0, symName: '__ZN4core3ptr38drop_in_place$LT$std..fs..DirEntry$GT$17h5f7115a8597ce001E', symObjAddr: 0x7D400, symBinAddr: 0x7DEB0, symSize: 0x28 }
  - { offsetInCU: 0x18FC8, offset: 0x78164, size: 0x8, addend: 0x0, symName: '__ZN4core3ptr38drop_in_place$LT$std..fs..DirEntry$GT$17h5f7115a8597ce001E', symObjAddr: 0x7D400, symBinAddr: 0x7DEB0, symSize: 0x28 }
  - { offsetInCU: 0x18FE2, offset: 0x7817E, size: 0x8, addend: 0x0, symName: '__ZN4core3ptr38drop_in_place$LT$std..fs..DirEntry$GT$17h5f7115a8597ce001E', symObjAddr: 0x7D400, symBinAddr: 0x7DEB0, symSize: 0x28 }
  - { offsetInCU: 0x18FFC, offset: 0x78198, size: 0x8, addend: 0x0, symName: '__ZN4core3ptr38drop_in_place$LT$std..fs..DirEntry$GT$17h5f7115a8597ce001E', symObjAddr: 0x7D400, symBinAddr: 0x7DEB0, symSize: 0x28 }
  - { offsetInCU: 0x19093, offset: 0x7822F, size: 0x8, addend: 0x0, symName: '__ZN4core3ptr65drop_in_place$LT$std..backtrace_rs..symbolize..gimli..Mapping$GT$17hdc166ca006b9c4daE', symObjAddr: 0x7D694, symBinAddr: 0x7E144, symSize: 0xD4 }
  - { offsetInCU: 0x1909B, offset: 0x78237, size: 0x8, addend: 0x0, symName: '__ZN5alloc7raw_vec19RawVec$LT$T$C$A$GT$7reserve21do_reserve_and_handle17hbaa9bca1b2e760d6E', symObjAddr: 0x7D768, symBinAddr: 0xBF250, symSize: 0xE0 }
  - { offsetInCU: 0x19331, offset: 0x784CD, size: 0x8, addend: 0x0, symName: '__ZN4core3ptr81drop_in_place$LT$$LP$usize$C$std..backtrace_rs..symbolize..gimli..Mapping$RP$$GT$17hdbd4ccf8b4c6099dE', symObjAddr: 0x7D848, symBinAddr: 0x7E218, symSize: 0x8 }
  - { offsetInCU: 0x19339, offset: 0x784D5, size: 0x8, addend: 0x0, symName: '__ZN9addr2line16Context$LT$R$GT$11find_frames17hb25f89c3d96e63e3E', symObjAddr: 0x7D850, symBinAddr: 0x7E220, symSize: 0x24A8 }
  - { offsetInCU: 0x195DE, offset: 0x7877A, size: 0x8, addend: 0x0, symName: '__ZN4core3ptr125drop_in_place$LT$addr2line..FrameIter$LT$gimli..read..endian_slice..EndianSlice$LT$gimli..endianity..LittleEndian$GT$$GT$$GT$17ha50f525ddc8f6e88E', symObjAddr: 0x7FF14, symBinAddr: 0x808E4, symSize: 0x24 }
  - { offsetInCU: 0x195E6, offset: 0x78782, size: 0x8, addend: 0x0, symName: __ZN6object4read7archive13ArchiveMember5parse17h50ca5e8867bb5ecaE, symObjAddr: 0x7FF38, symBinAddr: 0x80908, symSize: 0x3C8 }
  - { offsetInCU: 0x195FB, offset: 0x78797, size: 0x8, addend: 0x0, symName: '__ZN4core3ptr125drop_in_place$LT$addr2line..FrameIter$LT$gimli..read..endian_slice..EndianSlice$LT$gimli..endianity..LittleEndian$GT$$GT$$GT$17ha50f525ddc8f6e88E', symObjAddr: 0x7FF14, symBinAddr: 0x808E4, symSize: 0x24 }
  - { offsetInCU: 0x19945, offset: 0x78AE1, size: 0x8, addend: 0x0, symName: '__ZN4core3ptr78drop_in_place$LT$alloc..vec..Vec$LT$gimli..read..line..FileEntryFormat$GT$$GT$17ha105d1c995d30babE', symObjAddr: 0x824D0, symBinAddr: 0x82EA0, symSize: 0x10 }
  - { offsetInCU: 0x1994D, offset: 0x78AE9, size: 0x8, addend: 0x0, symName: '__ZN4core3ptr169drop_in_place$LT$alloc..vec..Vec$LT$gimli..read..unit..AttributeValue$LT$gimli..read..endian_slice..EndianSlice$LT$gimli..endianity..LittleEndian$GT$$C$usize$GT$$GT$$GT$17h13340b9dd7641eb1E', symObjAddr: 0x824E0, symBinAddr: 0x82EB0, symSize: 0x10 }
  - { offsetInCU: 0x19962, offset: 0x78AFE, size: 0x8, addend: 0x0, symName: '__ZN4core3ptr78drop_in_place$LT$alloc..vec..Vec$LT$gimli..read..line..FileEntryFormat$GT$$GT$17ha105d1c995d30babE', symObjAddr: 0x824D0, symBinAddr: 0x82EA0, symSize: 0x10 }
  - { offsetInCU: 0x1997C, offset: 0x78B18, size: 0x8, addend: 0x0, symName: '__ZN4core3ptr78drop_in_place$LT$alloc..vec..Vec$LT$gimli..read..line..FileEntryFormat$GT$$GT$17ha105d1c995d30babE', symObjAddr: 0x824D0, symBinAddr: 0x82EA0, symSize: 0x10 }
  - { offsetInCU: 0x19996, offset: 0x78B32, size: 0x8, addend: 0x0, symName: '__ZN4core3ptr78drop_in_place$LT$alloc..vec..Vec$LT$gimli..read..line..FileEntryFormat$GT$$GT$17ha105d1c995d30babE', symObjAddr: 0x824D0, symBinAddr: 0x82EA0, symSize: 0x10 }
  - { offsetInCU: 0x19A18, offset: 0x78BB4, size: 0x8, addend: 0x0, symName: '__ZN4core3ptr169drop_in_place$LT$alloc..vec..Vec$LT$gimli..read..unit..AttributeValue$LT$gimli..read..endian_slice..EndianSlice$LT$gimli..endianity..LittleEndian$GT$$C$usize$GT$$GT$$GT$17h13340b9dd7641eb1E', symObjAddr: 0x824E0, symBinAddr: 0x82EB0, symSize: 0x10 }
  - { offsetInCU: 0x19A20, offset: 0x78BBC, size: 0x8, addend: 0x0, symName: '__ZN90_$LT$gimli..read..unit..AttributeValue$LT$R$C$Offset$GT$$u20$as$u20$core..clone..Clone$GT$5clone17h2f8c9c67b5c7b846E', symObjAddr: 0x824F0, symBinAddr: 0x82EC0, symSize: 0x68 }
  - { offsetInCU: 0x19A35, offset: 0x78BD1, size: 0x8, addend: 0x0, symName: '__ZN4core3ptr169drop_in_place$LT$alloc..vec..Vec$LT$gimli..read..unit..AttributeValue$LT$gimli..read..endian_slice..EndianSlice$LT$gimli..endianity..LittleEndian$GT$$C$usize$GT$$GT$$GT$17h13340b9dd7641eb1E', symObjAddr: 0x824E0, symBinAddr: 0x82EB0, symSize: 0x10 }
  - { offsetInCU: 0x19A4F, offset: 0x78BEB, size: 0x8, addend: 0x0, symName: '__ZN4core3ptr169drop_in_place$LT$alloc..vec..Vec$LT$gimli..read..unit..AttributeValue$LT$gimli..read..endian_slice..EndianSlice$LT$gimli..endianity..LittleEndian$GT$$C$usize$GT$$GT$$GT$17h13340b9dd7641eb1E', symObjAddr: 0x824E0, symBinAddr: 0x82EB0, symSize: 0x10 }
  - { offsetInCU: 0x19A69, offset: 0x78C05, size: 0x8, addend: 0x0, symName: '__ZN4core3ptr169drop_in_place$LT$alloc..vec..Vec$LT$gimli..read..unit..AttributeValue$LT$gimli..read..endian_slice..EndianSlice$LT$gimli..endianity..LittleEndian$GT$$C$usize$GT$$GT$$GT$17h13340b9dd7641eb1E', symObjAddr: 0x824E0, symBinAddr: 0x82EB0, symSize: 0x10 }
  - { offsetInCU: 0x19AEB, offset: 0x78C87, size: 0x8, addend: 0x0, symName: '__ZN4core3ptr275drop_in_place$LT$gimli..read..line..LineRows$LT$gimli..read..endian_slice..EndianSlice$LT$gimli..endianity..LittleEndian$GT$$C$gimli..read..line..IncompleteLineProgram$LT$gimli..read..endian_slice..EndianSlice$LT$gimli..endianity..LittleEndian$GT$$C$usize$GT$$C$usize$GT$$GT$17ha8b888e987077ddaE', symObjAddr: 0x82848, symBinAddr: 0x83218, symSize: 0x64 }
  - { offsetInCU: 0x19AF3, offset: 0x78C8F, size: 0x8, addend: 0x0, symName: '__ZN4core3ptr1021drop_in_place$LT$core..slice..sort..merge_sort..RunVec$LT$alloc..slice..stable_sort$LT$$LP$gimli..common..DebugInfoOffset$C$gimli..common..DebugArangesOffset$RP$$C$alloc..slice..$LT$impl$u20$$u5b$$LP$gimli..common..DebugInfoOffset$C$gimli..common..DebugArangesOffset$RP$$u5d$$GT$..sort_by_key$LT$gimli..common..DebugInfoOffset$C$addr2line..ResDwarf$LT$gimli..read..endian_slice..EndianSlice$LT$gimli..endianity..LittleEndian$GT$$GT$..parse..$u7b$$u7b$closure$u7d$$u7d$$GT$..$u7b$$u7b$closure$u7d$$u7d$$GT$..$u7b$$u7b$closure$u7d$$u7d$$C$alloc..slice..stable_sort$LT$$LP$gimli..common..DebugInfoOffset$C$gimli..common..DebugArangesOffset$RP$$C$alloc..slice..$LT$impl$u20$$u5b$$LP$gimli..common..DebugInfoOffset$C$gimli..common..DebugArangesOffset$RP$$u5d$$GT$..sort_by_key$LT$gimli..common..DebugInfoOffset$C$addr2line..ResDwarf$LT$gimli..read..endian_slice..EndianSlice$LT$gimli..endianity..LittleEndian$GT$$GT$..parse..$u7b$$u7b$closure$u7d$$u7d$$GT$..$u7b$$u7b$closure$u7d$$u7d$$GT$..$u7b$$u7b$closure$u7d$$u7d$$GT$$GT$17h04d220ae87c56eb3E', symObjAddr: 0x828AC, symBinAddr: 0x8327C, symSize: 0x4 }
  - { offsetInCU: 0x19E2A, offset: 0x78FC6, size: 0x8, addend: 0x0, symName: '__ZN4core3ptr1021drop_in_place$LT$core..slice..sort..merge_sort..RunVec$LT$alloc..slice..stable_sort$LT$$LP$gimli..common..DebugInfoOffset$C$gimli..common..DebugArangesOffset$RP$$C$alloc..slice..$LT$impl$u20$$u5b$$LP$gimli..common..DebugInfoOffset$C$gimli..common..DebugArangesOffset$RP$$u5d$$GT$..sort_by_key$LT$gimli..common..DebugInfoOffset$C$addr2line..ResDwarf$LT$gimli..read..endian_slice..EndianSlice$LT$gimli..endianity..LittleEndian$GT$$GT$..parse..$u7b$$u7b$closure$u7d$$u7d$$GT$..$u7b$$u7b$closure$u7d$$u7d$$GT$..$u7b$$u7b$closure$u7d$$u7d$$C$alloc..slice..stable_sort$LT$$LP$gimli..common..DebugInfoOffset$C$gimli..common..DebugArangesOffset$RP$$C$alloc..slice..$LT$impl$u20$$u5b$$LP$gimli..common..DebugInfoOffset$C$gimli..common..DebugArangesOffset$RP$$u5d$$GT$..sort_by_key$LT$gimli..common..DebugInfoOffset$C$addr2line..ResDwarf$LT$gimli..read..endian_slice..EndianSlice$LT$gimli..endianity..LittleEndian$GT$$GT$..parse..$u7b$$u7b$closure$u7d$$u7d$$GT$..$u7b$$u7b$closure$u7d$$u7d$$GT$..$u7b$$u7b$closure$u7d$$u7d$$GT$$GT$17h04d220ae87c56eb3E', symObjAddr: 0x828AC, symBinAddr: 0x8327C, symSize: 0x4 }
  - { offsetInCU: 0x19E32, offset: 0x78FCE, size: 0x8, addend: 0x0, symName: '__ZN4core3ptr432drop_in_place$LT$core..slice..sort..merge_sort..BufGuard$LT$addr2line..UnitRange$C$alloc..slice..stable_sort$LT$addr2line..UnitRange$C$alloc..slice..$LT$impl$u20$$u5b$addr2line..UnitRange$u5d$$GT$..sort_by_key$LT$u64$C$addr2line..ResDwarf$LT$gimli..read..endian_slice..EndianSlice$LT$gimli..endianity..LittleEndian$GT$$GT$..parse..$u7b$$u7b$closure$u7d$$u7d$$GT$..$u7b$$u7b$closure$u7d$$u7d$$GT$..$u7b$$u7b$closure$u7d$$u7d$$GT$$GT$17h68e154512af0265fE', symObjAddr: 0x828B0, symBinAddr: 0x83280, symSize: 0x4 }
  - { offsetInCU: 0x19E47, offset: 0x78FE3, size: 0x8, addend: 0x0, symName: '__ZN4core3ptr1021drop_in_place$LT$core..slice..sort..merge_sort..RunVec$LT$alloc..slice..stable_sort$LT$$LP$gimli..common..DebugInfoOffset$C$gimli..common..DebugArangesOffset$RP$$C$alloc..slice..$LT$impl$u20$$u5b$$LP$gimli..common..DebugInfoOffset$C$gimli..common..DebugArangesOffset$RP$$u5d$$GT$..sort_by_key$LT$gimli..common..DebugInfoOffset$C$addr2line..ResDwarf$LT$gimli..read..endian_slice..EndianSlice$LT$gimli..endianity..LittleEndian$GT$$GT$..parse..$u7b$$u7b$closure$u7d$$u7d$$GT$..$u7b$$u7b$closure$u7d$$u7d$$GT$..$u7b$$u7b$closure$u7d$$u7d$$C$alloc..slice..stable_sort$LT$$LP$gimli..common..DebugInfoOffset$C$gimli..common..DebugArangesOffset$RP$$C$alloc..slice..$LT$impl$u20$$u5b$$LP$gimli..common..DebugInfoOffset$C$gimli..common..DebugArangesOffset$RP$$u5d$$GT$..sort_by_key$LT$gimli..common..DebugInfoOffset$C$addr2line..ResDwarf$LT$gimli..read..endian_slice..EndianSlice$LT$gimli..endianity..LittleEndian$GT$$GT$..parse..$u7b$$u7b$closure$u7d$$u7d$$GT$..$u7b$$u7b$closure$u7d$$u7d$$GT$..$u7b$$u7b$closure$u7d$$u7d$$GT$$GT$17h04d220ae87c56eb3E', symObjAddr: 0x828AC, symBinAddr: 0x8327C, symSize: 0x4 }
  - { offsetInCU: 0x19E4F, offset: 0x78FEB, size: 0x8, addend: 0x0, symName: '__ZN4core3ptr432drop_in_place$LT$core..slice..sort..merge_sort..BufGuard$LT$addr2line..UnitRange$C$alloc..slice..stable_sort$LT$addr2line..UnitRange$C$alloc..slice..$LT$impl$u20$$u5b$addr2line..UnitRange$u5d$$GT$..sort_by_key$LT$u64$C$addr2line..ResDwarf$LT$gimli..read..endian_slice..EndianSlice$LT$gimli..endianity..LittleEndian$GT$$GT$..parse..$u7b$$u7b$closure$u7d$$u7d$$GT$..$u7b$$u7b$closure$u7d$$u7d$$GT$..$u7b$$u7b$closure$u7d$$u7d$$GT$$GT$17h68e154512af0265fE', symObjAddr: 0x828B0, symBinAddr: 0x83280, symSize: 0x4 }
  - { offsetInCU: 0x19E61, offset: 0x78FFD, size: 0x8, addend: 0x0, symName: '__ZN4core3ptr1021drop_in_place$LT$core..slice..sort..merge_sort..RunVec$LT$alloc..slice..stable_sort$LT$$LP$gimli..common..DebugInfoOffset$C$gimli..common..DebugArangesOffset$RP$$C$alloc..slice..$LT$impl$u20$$u5b$$LP$gimli..common..DebugInfoOffset$C$gimli..common..DebugArangesOffset$RP$$u5d$$GT$..sort_by_key$LT$gimli..common..DebugInfoOffset$C$addr2line..ResDwarf$LT$gimli..read..endian_slice..EndianSlice$LT$gimli..endianity..LittleEndian$GT$$GT$..parse..$u7b$$u7b$closure$u7d$$u7d$$GT$..$u7b$$u7b$closure$u7d$$u7d$$GT$..$u7b$$u7b$closure$u7d$$u7d$$C$alloc..slice..stable_sort$LT$$LP$gimli..common..DebugInfoOffset$C$gimli..common..DebugArangesOffset$RP$$C$alloc..slice..$LT$impl$u20$$u5b$$LP$gimli..common..DebugInfoOffset$C$gimli..common..DebugArangesOffset$RP$$u5d$$GT$..sort_by_key$LT$gimli..common..DebugInfoOffset$C$addr2line..ResDwarf$LT$gimli..read..endian_slice..EndianSlice$LT$gimli..endianity..LittleEndian$GT$$GT$..parse..$u7b$$u7b$closure$u7d$$u7d$$GT$..$u7b$$u7b$closure$u7d$$u7d$$GT$..$u7b$$u7b$closure$u7d$$u7d$$GT$$GT$17h04d220ae87c56eb3E', symObjAddr: 0x828AC, symBinAddr: 0x8327C, symSize: 0x4 }
  - { offsetInCU: 0x19E69, offset: 0x79005, size: 0x8, addend: 0x0, symName: '__ZN4core3ptr432drop_in_place$LT$core..slice..sort..merge_sort..BufGuard$LT$addr2line..UnitRange$C$alloc..slice..stable_sort$LT$addr2line..UnitRange$C$alloc..slice..$LT$impl$u20$$u5b$addr2line..UnitRange$u5d$$GT$..sort_by_key$LT$u64$C$addr2line..ResDwarf$LT$gimli..read..endian_slice..EndianSlice$LT$gimli..endianity..LittleEndian$GT$$GT$..parse..$u7b$$u7b$closure$u7d$$u7d$$GT$..$u7b$$u7b$closure$u7d$$u7d$$GT$..$u7b$$u7b$closure$u7d$$u7d$$GT$$GT$17h68e154512af0265fE', symObjAddr: 0x828B0, symBinAddr: 0x83280, symSize: 0x4 }
  - { offsetInCU: 0x19E7B, offset: 0x79017, size: 0x8, addend: 0x0, symName: '__ZN4core3ptr1021drop_in_place$LT$core..slice..sort..merge_sort..RunVec$LT$alloc..slice..stable_sort$LT$$LP$gimli..common..DebugInfoOffset$C$gimli..common..DebugArangesOffset$RP$$C$alloc..slice..$LT$impl$u20$$u5b$$LP$gimli..common..DebugInfoOffset$C$gimli..common..DebugArangesOffset$RP$$u5d$$GT$..sort_by_key$LT$gimli..common..DebugInfoOffset$C$addr2line..ResDwarf$LT$gimli..read..endian_slice..EndianSlice$LT$gimli..endianity..LittleEndian$GT$$GT$..parse..$u7b$$u7b$closure$u7d$$u7d$$GT$..$u7b$$u7b$closure$u7d$$u7d$$GT$..$u7b$$u7b$closure$u7d$$u7d$$C$alloc..slice..stable_sort$LT$$LP$gimli..common..DebugInfoOffset$C$gimli..common..DebugArangesOffset$RP$$C$alloc..slice..$LT$impl$u20$$u5b$$LP$gimli..common..DebugInfoOffset$C$gimli..common..DebugArangesOffset$RP$$u5d$$GT$..sort_by_key$LT$gimli..common..DebugInfoOffset$C$addr2line..ResDwarf$LT$gimli..read..endian_slice..EndianSlice$LT$gimli..endianity..LittleEndian$GT$$GT$..parse..$u7b$$u7b$closure$u7d$$u7d$$GT$..$u7b$$u7b$closure$u7d$$u7d$$GT$..$u7b$$u7b$closure$u7d$$u7d$$GT$$GT$17h04d220ae87c56eb3E', symObjAddr: 0x828AC, symBinAddr: 0x8327C, symSize: 0x4 }
  - { offsetInCU: 0x19E83, offset: 0x7901F, size: 0x8, addend: 0x0, symName: '__ZN4core3ptr432drop_in_place$LT$core..slice..sort..merge_sort..BufGuard$LT$addr2line..UnitRange$C$alloc..slice..stable_sort$LT$addr2line..UnitRange$C$alloc..slice..$LT$impl$u20$$u5b$addr2line..UnitRange$u5d$$GT$..sort_by_key$LT$u64$C$addr2line..ResDwarf$LT$gimli..read..endian_slice..EndianSlice$LT$gimli..endianity..LittleEndian$GT$$GT$..parse..$u7b$$u7b$closure$u7d$$u7d$$GT$..$u7b$$u7b$closure$u7d$$u7d$$GT$..$u7b$$u7b$closure$u7d$$u7d$$GT$$GT$17h68e154512af0265fE', symObjAddr: 0x828B0, symBinAddr: 0x83280, symSize: 0x4 }
  - { offsetInCU: 0x19E95, offset: 0x79031, size: 0x8, addend: 0x0, symName: '__ZN4core3ptr1021drop_in_place$LT$core..slice..sort..merge_sort..RunVec$LT$alloc..slice..stable_sort$LT$$LP$gimli..common..DebugInfoOffset$C$gimli..common..DebugArangesOffset$RP$$C$alloc..slice..$LT$impl$u20$$u5b$$LP$gimli..common..DebugInfoOffset$C$gimli..common..DebugArangesOffset$RP$$u5d$$GT$..sort_by_key$LT$gimli..common..DebugInfoOffset$C$addr2line..ResDwarf$LT$gimli..read..endian_slice..EndianSlice$LT$gimli..endianity..LittleEndian$GT$$GT$..parse..$u7b$$u7b$closure$u7d$$u7d$$GT$..$u7b$$u7b$closure$u7d$$u7d$$GT$..$u7b$$u7b$closure$u7d$$u7d$$C$alloc..slice..stable_sort$LT$$LP$gimli..common..DebugInfoOffset$C$gimli..common..DebugArangesOffset$RP$$C$alloc..slice..$LT$impl$u20$$u5b$$LP$gimli..common..DebugInfoOffset$C$gimli..common..DebugArangesOffset$RP$$u5d$$GT$..sort_by_key$LT$gimli..common..DebugInfoOffset$C$addr2line..ResDwarf$LT$gimli..read..endian_slice..EndianSlice$LT$gimli..endianity..LittleEndian$GT$$GT$..parse..$u7b$$u7b$closure$u7d$$u7d$$GT$..$u7b$$u7b$closure$u7d$$u7d$$GT$..$u7b$$u7b$closure$u7d$$u7d$$GT$$GT$17h04d220ae87c56eb3E', symObjAddr: 0x828AC, symBinAddr: 0x8327C, symSize: 0x4 }
  - { offsetInCU: 0x19E9D, offset: 0x79039, size: 0x8, addend: 0x0, symName: '__ZN4core3ptr432drop_in_place$LT$core..slice..sort..merge_sort..BufGuard$LT$addr2line..UnitRange$C$alloc..slice..stable_sort$LT$addr2line..UnitRange$C$alloc..slice..$LT$impl$u20$$u5b$addr2line..UnitRange$u5d$$GT$..sort_by_key$LT$u64$C$addr2line..ResDwarf$LT$gimli..read..endian_slice..EndianSlice$LT$gimli..endianity..LittleEndian$GT$$GT$..parse..$u7b$$u7b$closure$u7d$$u7d$$GT$..$u7b$$u7b$closure$u7d$$u7d$$GT$..$u7b$$u7b$closure$u7d$$u7d$$GT$$GT$17h68e154512af0265fE', symObjAddr: 0x828B0, symBinAddr: 0x83280, symSize: 0x4 }
  - { offsetInCU: 0x19EAE, offset: 0x7904A, size: 0x8, addend: 0x0, symName: '__ZN4core3ptr1021drop_in_place$LT$core..slice..sort..merge_sort..RunVec$LT$alloc..slice..stable_sort$LT$$LP$gimli..common..DebugInfoOffset$C$gimli..common..DebugArangesOffset$RP$$C$alloc..slice..$LT$impl$u20$$u5b$$LP$gimli..common..DebugInfoOffset$C$gimli..common..DebugArangesOffset$RP$$u5d$$GT$..sort_by_key$LT$gimli..common..DebugInfoOffset$C$addr2line..ResDwarf$LT$gimli..read..endian_slice..EndianSlice$LT$gimli..endianity..LittleEndian$GT$$GT$..parse..$u7b$$u7b$closure$u7d$$u7d$$GT$..$u7b$$u7b$closure$u7d$$u7d$$GT$..$u7b$$u7b$closure$u7d$$u7d$$C$alloc..slice..stable_sort$LT$$LP$gimli..common..DebugInfoOffset$C$gimli..common..DebugArangesOffset$RP$$C$alloc..slice..$LT$impl$u20$$u5b$$LP$gimli..common..DebugInfoOffset$C$gimli..common..DebugArangesOffset$RP$$u5d$$GT$..sort_by_key$LT$gimli..common..DebugInfoOffset$C$addr2line..ResDwarf$LT$gimli..read..endian_slice..EndianSlice$LT$gimli..endianity..LittleEndian$GT$$GT$..parse..$u7b$$u7b$closure$u7d$$u7d$$GT$..$u7b$$u7b$closure$u7d$$u7d$$GT$..$u7b$$u7b$closure$u7d$$u7d$$GT$$GT$17h04d220ae87c56eb3E', symObjAddr: 0x828AC, symBinAddr: 0x8327C, symSize: 0x4 }
  - { offsetInCU: 0x19EB6, offset: 0x79052, size: 0x8, addend: 0x0, symName: '__ZN4core3ptr432drop_in_place$LT$core..slice..sort..merge_sort..BufGuard$LT$addr2line..UnitRange$C$alloc..slice..stable_sort$LT$addr2line..UnitRange$C$alloc..slice..$LT$impl$u20$$u5b$addr2line..UnitRange$u5d$$GT$..sort_by_key$LT$u64$C$addr2line..ResDwarf$LT$gimli..read..endian_slice..EndianSlice$LT$gimli..endianity..LittleEndian$GT$$GT$..parse..$u7b$$u7b$closure$u7d$$u7d$$GT$..$u7b$$u7b$closure$u7d$$u7d$$GT$..$u7b$$u7b$closure$u7d$$u7d$$GT$$GT$17h68e154512af0265fE', symObjAddr: 0x828B0, symBinAddr: 0x83280, symSize: 0x4 }
  - { offsetInCU: 0x19EC9, offset: 0x79065, size: 0x8, addend: 0x0, symName: '__ZN4core3ptr432drop_in_place$LT$core..slice..sort..merge_sort..BufGuard$LT$addr2line..UnitRange$C$alloc..slice..stable_sort$LT$addr2line..UnitRange$C$alloc..slice..$LT$impl$u20$$u5b$addr2line..UnitRange$u5d$$GT$..sort_by_key$LT$u64$C$addr2line..ResDwarf$LT$gimli..read..endian_slice..EndianSlice$LT$gimli..endianity..LittleEndian$GT$$GT$..parse..$u7b$$u7b$closure$u7d$$u7d$$GT$..$u7b$$u7b$closure$u7d$$u7d$$GT$..$u7b$$u7b$closure$u7d$$u7d$$GT$$GT$17h68e154512af0265fE', symObjAddr: 0x828B0, symBinAddr: 0x83280, symSize: 0x4 }
  - { offsetInCU: 0x19ED1, offset: 0x7906D, size: 0x8, addend: 0x0, symName: '__ZN9addr2line16ResUnit$LT$R$GT$11render_file17h8b193807864dbeb7E', symObjAddr: 0x828B4, symBinAddr: 0x83284, symSize: 0x378 }
  - { offsetInCU: 0x19EE6, offset: 0x79082, size: 0x8, addend: 0x0, symName: '__ZN4core3ptr432drop_in_place$LT$core..slice..sort..merge_sort..BufGuard$LT$addr2line..UnitRange$C$alloc..slice..stable_sort$LT$addr2line..UnitRange$C$alloc..slice..$LT$impl$u20$$u5b$addr2line..UnitRange$u5d$$GT$..sort_by_key$LT$u64$C$addr2line..ResDwarf$LT$gimli..read..endian_slice..EndianSlice$LT$gimli..endianity..LittleEndian$GT$$GT$..parse..$u7b$$u7b$closure$u7d$$u7d$$GT$..$u7b$$u7b$closure$u7d$$u7d$$GT$..$u7b$$u7b$closure$u7d$$u7d$$GT$$GT$17h68e154512af0265fE', symObjAddr: 0x828B0, symBinAddr: 0x83280, symSize: 0x4 }
  - { offsetInCU: 0x19EEE, offset: 0x7908A, size: 0x8, addend: 0x0, symName: '__ZN9addr2line16ResUnit$LT$R$GT$11render_file17h8b193807864dbeb7E', symObjAddr: 0x828B4, symBinAddr: 0x83284, symSize: 0x378 }
  - { offsetInCU: 0x19F00, offset: 0x7909C, size: 0x8, addend: 0x0, symName: '__ZN4core3ptr432drop_in_place$LT$core..slice..sort..merge_sort..BufGuard$LT$addr2line..UnitRange$C$alloc..slice..stable_sort$LT$addr2line..UnitRange$C$alloc..slice..$LT$impl$u20$$u5b$addr2line..UnitRange$u5d$$GT$..sort_by_key$LT$u64$C$addr2line..ResDwarf$LT$gimli..read..endian_slice..EndianSlice$LT$gimli..endianity..LittleEndian$GT$$GT$..parse..$u7b$$u7b$closure$u7d$$u7d$$GT$..$u7b$$u7b$closure$u7d$$u7d$$GT$..$u7b$$u7b$closure$u7d$$u7d$$GT$$GT$17h68e154512af0265fE', symObjAddr: 0x828B0, symBinAddr: 0x83280, symSize: 0x4 }
  - { offsetInCU: 0x19F08, offset: 0x790A4, size: 0x8, addend: 0x0, symName: '__ZN9addr2line16ResUnit$LT$R$GT$11render_file17h8b193807864dbeb7E', symObjAddr: 0x828B4, symBinAddr: 0x83284, symSize: 0x378 }
  - { offsetInCU: 0x19F1A, offset: 0x790B6, size: 0x8, addend: 0x0, symName: '__ZN4core3ptr432drop_in_place$LT$core..slice..sort..merge_sort..BufGuard$LT$addr2line..UnitRange$C$alloc..slice..stable_sort$LT$addr2line..UnitRange$C$alloc..slice..$LT$impl$u20$$u5b$addr2line..UnitRange$u5d$$GT$..sort_by_key$LT$u64$C$addr2line..ResDwarf$LT$gimli..read..endian_slice..EndianSlice$LT$gimli..endianity..LittleEndian$GT$$GT$..parse..$u7b$$u7b$closure$u7d$$u7d$$GT$..$u7b$$u7b$closure$u7d$$u7d$$GT$..$u7b$$u7b$closure$u7d$$u7d$$GT$$GT$17h68e154512af0265fE', symObjAddr: 0x828B0, symBinAddr: 0x83280, symSize: 0x4 }
  - { offsetInCU: 0x19F22, offset: 0x790BE, size: 0x8, addend: 0x0, symName: '__ZN9addr2line16ResUnit$LT$R$GT$11render_file17h8b193807864dbeb7E', symObjAddr: 0x828B4, symBinAddr: 0x83284, symSize: 0x378 }
  - { offsetInCU: 0x19F34, offset: 0x790D0, size: 0x8, addend: 0x0, symName: '__ZN4core3ptr432drop_in_place$LT$core..slice..sort..merge_sort..BufGuard$LT$addr2line..UnitRange$C$alloc..slice..stable_sort$LT$addr2line..UnitRange$C$alloc..slice..$LT$impl$u20$$u5b$addr2line..UnitRange$u5d$$GT$..sort_by_key$LT$u64$C$addr2line..ResDwarf$LT$gimli..read..endian_slice..EndianSlice$LT$gimli..endianity..LittleEndian$GT$$GT$..parse..$u7b$$u7b$closure$u7d$$u7d$$GT$..$u7b$$u7b$closure$u7d$$u7d$$GT$..$u7b$$u7b$closure$u7d$$u7d$$GT$$GT$17h68e154512af0265fE', symObjAddr: 0x828B0, symBinAddr: 0x83280, symSize: 0x4 }
  - { offsetInCU: 0x19F3C, offset: 0x790D8, size: 0x8, addend: 0x0, symName: '__ZN9addr2line16ResUnit$LT$R$GT$11render_file17h8b193807864dbeb7E', symObjAddr: 0x828B4, symBinAddr: 0x83284, symSize: 0x378 }
  - { offsetInCU: 0x19F4D, offset: 0x790E9, size: 0x8, addend: 0x0, symName: '__ZN4core3ptr432drop_in_place$LT$core..slice..sort..merge_sort..BufGuard$LT$addr2line..UnitRange$C$alloc..slice..stable_sort$LT$addr2line..UnitRange$C$alloc..slice..$LT$impl$u20$$u5b$addr2line..UnitRange$u5d$$GT$..sort_by_key$LT$u64$C$addr2line..ResDwarf$LT$gimli..read..endian_slice..EndianSlice$LT$gimli..endianity..LittleEndian$GT$$GT$..parse..$u7b$$u7b$closure$u7d$$u7d$$GT$..$u7b$$u7b$closure$u7d$$u7d$$GT$..$u7b$$u7b$closure$u7d$$u7d$$GT$$GT$17h68e154512af0265fE', symObjAddr: 0x828B0, symBinAddr: 0x83280, symSize: 0x4 }
  - { offsetInCU: 0x19F55, offset: 0x790F1, size: 0x8, addend: 0x0, symName: '__ZN9addr2line16ResUnit$LT$R$GT$11render_file17h8b193807864dbeb7E', symObjAddr: 0x828B4, symBinAddr: 0x83284, symSize: 0x378 }
  - { offsetInCU: 0x19F77, offset: 0x79113, size: 0x8, addend: 0x0, symName: '__ZN4core3ptr65drop_in_place$LT$alloc..vec..Vec$LT$alloc..string..String$GT$$GT$17h0bcfadfdb1e117f9E', symObjAddr: 0x82D00, symBinAddr: 0x836D0, symSize: 0x7C }
  - { offsetInCU: 0x19F7F, offset: 0x7911B, size: 0x8, addend: 0x0, symName: '__ZN4core3ptr67drop_in_place$LT$alloc..vec..Vec$LT$addr2line..LineSequence$GT$$GT$17hbc241683717ba401E', symObjAddr: 0x82D7C, symBinAddr: 0x8374C, symSize: 0x78 }
  - { offsetInCU: 0x1A102, offset: 0x7929E, size: 0x8, addend: 0x0, symName: '__ZN4core3ptr67drop_in_place$LT$alloc..vec..Vec$LT$addr2line..LineSequence$GT$$GT$17hbc241683717ba401E', symObjAddr: 0x82D7C, symBinAddr: 0x8374C, symSize: 0x78 }
  - { offsetInCU: 0x1A10A, offset: 0x792A6, size: 0x8, addend: 0x0, symName: '__ZN4core3ptr77drop_in_place$LT$alloc..boxed..Box$LT$$u5b$alloc..string..String$u5d$$GT$$GT$17h0849c986030bcb3fE', symObjAddr: 0x82DF4, symBinAddr: 0x837C4, symSize: 0x7C }
  - { offsetInCU: 0x1A264, offset: 0x79400, size: 0x8, addend: 0x0, symName: '__ZN4core3ptr77drop_in_place$LT$alloc..boxed..Box$LT$$u5b$alloc..string..String$u5d$$GT$$GT$17h0849c986030bcb3fE', symObjAddr: 0x82DF4, symBinAddr: 0x837C4, symSize: 0x7C }
  - { offsetInCU: 0x1A26C, offset: 0x79408, size: 0x8, addend: 0x0, symName: '__ZN5alloc7raw_vec19RawVec$LT$T$C$A$GT$16reserve_for_push17h5142afaeed69c480E', symObjAddr: 0x82E70, symBinAddr: 0x83840, symSize: 0xC0 }
  - { offsetInCU: 0x1A3AB, offset: 0x79547, size: 0x8, addend: 0x0, symName: '__ZN4core3ptr44drop_in_place$LT$addr2line..LineSequence$GT$17hec7f6aa9810071c9E', symObjAddr: 0x82F30, symBinAddr: 0x83900, symSize: 0x4 }
  - { offsetInCU: 0x1A3B3, offset: 0x7954F, size: 0x8, addend: 0x0, symName: '__ZN4core3ptr86drop_in_place$LT$core..result..Result$LT$addr2line..Lines$C$gimli..read..Error$GT$$GT$17h1dc344849c9769dfE', symObjAddr: 0x82F34, symBinAddr: 0x83904, symSize: 0xC8 }
  - { offsetInCU: 0x1A3C8, offset: 0x79564, size: 0x8, addend: 0x0, symName: '__ZN4core3ptr44drop_in_place$LT$addr2line..LineSequence$GT$17hec7f6aa9810071c9E', symObjAddr: 0x82F30, symBinAddr: 0x83900, symSize: 0x4 }
  - { offsetInCU: 0x1A3D0, offset: 0x7956C, size: 0x8, addend: 0x0, symName: '__ZN4core3ptr86drop_in_place$LT$core..result..Result$LT$addr2line..Lines$C$gimli..read..Error$GT$$GT$17h1dc344849c9769dfE', symObjAddr: 0x82F34, symBinAddr: 0x83904, symSize: 0xC8 }
  - { offsetInCU: 0x1A3E2, offset: 0x7957E, size: 0x8, addend: 0x0, symName: '__ZN4core3ptr44drop_in_place$LT$addr2line..LineSequence$GT$17hec7f6aa9810071c9E', symObjAddr: 0x82F30, symBinAddr: 0x83900, symSize: 0x4 }
  - { offsetInCU: 0x1A3EA, offset: 0x79586, size: 0x8, addend: 0x0, symName: '__ZN4core3ptr86drop_in_place$LT$core..result..Result$LT$addr2line..Lines$C$gimli..read..Error$GT$$GT$17h1dc344849c9769dfE', symObjAddr: 0x82F34, symBinAddr: 0x83904, symSize: 0xC8 }
  - { offsetInCU: 0x1A3FC, offset: 0x79598, size: 0x8, addend: 0x0, symName: '__ZN4core3ptr44drop_in_place$LT$addr2line..LineSequence$GT$17hec7f6aa9810071c9E', symObjAddr: 0x82F30, symBinAddr: 0x83900, symSize: 0x4 }
  - { offsetInCU: 0x1A404, offset: 0x795A0, size: 0x8, addend: 0x0, symName: '__ZN4core3ptr86drop_in_place$LT$core..result..Result$LT$addr2line..Lines$C$gimli..read..Error$GT$$GT$17h1dc344849c9769dfE', symObjAddr: 0x82F34, symBinAddr: 0x83904, symSize: 0xC8 }
  - { offsetInCU: 0x1A416, offset: 0x795B2, size: 0x8, addend: 0x0, symName: '__ZN4core3ptr44drop_in_place$LT$addr2line..LineSequence$GT$17hec7f6aa9810071c9E', symObjAddr: 0x82F30, symBinAddr: 0x83900, symSize: 0x4 }
  - { offsetInCU: 0x1A41E, offset: 0x795BA, size: 0x8, addend: 0x0, symName: '__ZN4core3ptr86drop_in_place$LT$core..result..Result$LT$addr2line..Lines$C$gimli..read..Error$GT$$GT$17h1dc344849c9769dfE', symObjAddr: 0x82F34, symBinAddr: 0x83904, symSize: 0xC8 }
  - { offsetInCU: 0x1A42F, offset: 0x795CB, size: 0x8, addend: 0x0, symName: '__ZN4core3ptr44drop_in_place$LT$addr2line..LineSequence$GT$17hec7f6aa9810071c9E', symObjAddr: 0x82F30, symBinAddr: 0x83900, symSize: 0x4 }
  - { offsetInCU: 0x1A437, offset: 0x795D3, size: 0x8, addend: 0x0, symName: '__ZN4core3ptr86drop_in_place$LT$core..result..Result$LT$addr2line..Lines$C$gimli..read..Error$GT$$GT$17h1dc344849c9769dfE', symObjAddr: 0x82F34, symBinAddr: 0x83904, symSize: 0xC8 }
  - { offsetInCU: 0x1A448, offset: 0x795E4, size: 0x8, addend: 0x0, symName: '__ZN4core3ptr44drop_in_place$LT$addr2line..LineSequence$GT$17hec7f6aa9810071c9E', symObjAddr: 0x82F30, symBinAddr: 0x83900, symSize: 0x4 }
  - { offsetInCU: 0x1A450, offset: 0x795EC, size: 0x8, addend: 0x0, symName: '__ZN4core3ptr86drop_in_place$LT$core..result..Result$LT$addr2line..Lines$C$gimli..read..Error$GT$$GT$17h1dc344849c9769dfE', symObjAddr: 0x82F34, symBinAddr: 0x83904, symSize: 0xC8 }
  - { offsetInCU: 0x1A464, offset: 0x79600, size: 0x8, addend: 0x0, symName: '__ZN4core3ptr86drop_in_place$LT$core..result..Result$LT$addr2line..Lines$C$gimli..read..Error$GT$$GT$17h1dc344849c9769dfE', symObjAddr: 0x82F34, symBinAddr: 0x83904, symSize: 0xC8 }
  - { offsetInCU: 0x1A46C, offset: 0x79608, size: 0x8, addend: 0x0, symName: '__ZN5gimli4read5dwarf14Dwarf$LT$R$GT$11attr_string17hf43894bd39b95e83E', symObjAddr: 0x82FFC, symBinAddr: 0x839CC, symSize: 0x240 }
  - { offsetInCU: 0x1A70D, offset: 0x798A9, size: 0x8, addend: 0x0, symName: '__ZN4core3ptr250drop_in_place$LT$$LP$gimli..read..UnitOffset$C$addr2line..lazy..LazyCell$LT$core..result..Result$LT$addr2line..function..Function$LT$gimli..read..endian_slice..EndianSlice$LT$gimli..endianity..LittleEndian$GT$$GT$$C$gimli..read..Error$GT$$GT$$RP$$GT$17h3a8da7b935396d33E', symObjAddr: 0x85184, symBinAddr: 0x85B54, symSize: 0x50 }
  - { offsetInCU: 0x1A715, offset: 0x798B1, size: 0x8, addend: 0x0, symName: __ZN5gimli4read4unit15skip_attributes17h39870cf83424fb88E, symObjAddr: 0x851D4, symBinAddr: 0x85BA4, symSize: 0x384 }
  - { offsetInCU: 0x1A8C7, offset: 0x79A63, size: 0x8, addend: 0x0, symName: '__ZN4core3ptr491drop_in_place$LT$core..slice..sort..merge_sort..BufGuard$LT$addr2line..function..FunctionAddress$C$alloc..slice..stable_sort$LT$addr2line..function..FunctionAddress$C$alloc..slice..$LT$impl$u20$$u5b$addr2line..function..FunctionAddress$u5d$$GT$..sort_by_key$LT$u64$C$addr2line..function..Functions$LT$gimli..read..endian_slice..EndianSlice$LT$gimli..endianity..LittleEndian$GT$$GT$..parse..$u7b$$u7b$closure$u7d$$u7d$$GT$..$u7b$$u7b$closure$u7d$$u7d$$GT$..$u7b$$u7b$closure$u7d$$u7d$$GT$$GT$17h4dab912f9efbbd2eE', symObjAddr: 0x85558, symBinAddr: 0x85F28, symSize: 0x4 }
  - { offsetInCU: 0x1A8CF, offset: 0x79A6B, size: 0x8, addend: 0x0, symName: '__ZN4core3ptr273drop_in_place$LT$alloc..vec..Vec$LT$$LP$gimli..read..UnitOffset$C$addr2line..lazy..LazyCell$LT$core..result..Result$LT$addr2line..function..Function$LT$gimli..read..endian_slice..EndianSlice$LT$gimli..endianity..LittleEndian$GT$$GT$$C$gimli..read..Error$GT$$GT$$RP$$GT$$GT$17h1f055bc1fd9b72b7E', symObjAddr: 0x8555C, symBinAddr: 0x85F2C, symSize: 0x98 }
  - { offsetInCU: 0x1A8E4, offset: 0x79A80, size: 0x8, addend: 0x0, symName: '__ZN4core3ptr491drop_in_place$LT$core..slice..sort..merge_sort..BufGuard$LT$addr2line..function..FunctionAddress$C$alloc..slice..stable_sort$LT$addr2line..function..FunctionAddress$C$alloc..slice..$LT$impl$u20$$u5b$addr2line..function..FunctionAddress$u5d$$GT$..sort_by_key$LT$u64$C$addr2line..function..Functions$LT$gimli..read..endian_slice..EndianSlice$LT$gimli..endianity..LittleEndian$GT$$GT$..parse..$u7b$$u7b$closure$u7d$$u7d$$GT$..$u7b$$u7b$closure$u7d$$u7d$$GT$..$u7b$$u7b$closure$u7d$$u7d$$GT$$GT$17h4dab912f9efbbd2eE', symObjAddr: 0x85558, symBinAddr: 0x85F28, symSize: 0x4 }
  - { offsetInCU: 0x1A8EC, offset: 0x79A88, size: 0x8, addend: 0x0, symName: '__ZN4core3ptr273drop_in_place$LT$alloc..vec..Vec$LT$$LP$gimli..read..UnitOffset$C$addr2line..lazy..LazyCell$LT$core..result..Result$LT$addr2line..function..Function$LT$gimli..read..endian_slice..EndianSlice$LT$gimli..endianity..LittleEndian$GT$$GT$$C$gimli..read..Error$GT$$GT$$RP$$GT$$GT$17h1f055bc1fd9b72b7E', symObjAddr: 0x8555C, symBinAddr: 0x85F2C, symSize: 0x98 }
  - { offsetInCU: 0x1A8FE, offset: 0x79A9A, size: 0x8, addend: 0x0, symName: '__ZN4core3ptr491drop_in_place$LT$core..slice..sort..merge_sort..BufGuard$LT$addr2line..function..FunctionAddress$C$alloc..slice..stable_sort$LT$addr2line..function..FunctionAddress$C$alloc..slice..$LT$impl$u20$$u5b$addr2line..function..FunctionAddress$u5d$$GT$..sort_by_key$LT$u64$C$addr2line..function..Functions$LT$gimli..read..endian_slice..EndianSlice$LT$gimli..endianity..LittleEndian$GT$$GT$..parse..$u7b$$u7b$closure$u7d$$u7d$$GT$..$u7b$$u7b$closure$u7d$$u7d$$GT$..$u7b$$u7b$closure$u7d$$u7d$$GT$$GT$17h4dab912f9efbbd2eE', symObjAddr: 0x85558, symBinAddr: 0x85F28, symSize: 0x4 }
  - { offsetInCU: 0x1A906, offset: 0x79AA2, size: 0x8, addend: 0x0, symName: '__ZN4core3ptr273drop_in_place$LT$alloc..vec..Vec$LT$$LP$gimli..read..UnitOffset$C$addr2line..lazy..LazyCell$LT$core..result..Result$LT$addr2line..function..Function$LT$gimli..read..endian_slice..EndianSlice$LT$gimli..endianity..LittleEndian$GT$$GT$$C$gimli..read..Error$GT$$GT$$RP$$GT$$GT$17h1f055bc1fd9b72b7E', symObjAddr: 0x8555C, symBinAddr: 0x85F2C, symSize: 0x98 }
  - { offsetInCU: 0x1A918, offset: 0x79AB4, size: 0x8, addend: 0x0, symName: '__ZN4core3ptr491drop_in_place$LT$core..slice..sort..merge_sort..BufGuard$LT$addr2line..function..FunctionAddress$C$alloc..slice..stable_sort$LT$addr2line..function..FunctionAddress$C$alloc..slice..$LT$impl$u20$$u5b$addr2line..function..FunctionAddress$u5d$$GT$..sort_by_key$LT$u64$C$addr2line..function..Functions$LT$gimli..read..endian_slice..EndianSlice$LT$gimli..endianity..LittleEndian$GT$$GT$..parse..$u7b$$u7b$closure$u7d$$u7d$$GT$..$u7b$$u7b$closure$u7d$$u7d$$GT$..$u7b$$u7b$closure$u7d$$u7d$$GT$$GT$17h4dab912f9efbbd2eE', symObjAddr: 0x85558, symBinAddr: 0x85F28, symSize: 0x4 }
  - { offsetInCU: 0x1A920, offset: 0x79ABC, size: 0x8, addend: 0x0, symName: '__ZN4core3ptr273drop_in_place$LT$alloc..vec..Vec$LT$$LP$gimli..read..UnitOffset$C$addr2line..lazy..LazyCell$LT$core..result..Result$LT$addr2line..function..Function$LT$gimli..read..endian_slice..EndianSlice$LT$gimli..endianity..LittleEndian$GT$$GT$$C$gimli..read..Error$GT$$GT$$RP$$GT$$GT$17h1f055bc1fd9b72b7E', symObjAddr: 0x8555C, symBinAddr: 0x85F2C, symSize: 0x98 }
  - { offsetInCU: 0x1A932, offset: 0x79ACE, size: 0x8, addend: 0x0, symName: '__ZN4core3ptr491drop_in_place$LT$core..slice..sort..merge_sort..BufGuard$LT$addr2line..function..FunctionAddress$C$alloc..slice..stable_sort$LT$addr2line..function..FunctionAddress$C$alloc..slice..$LT$impl$u20$$u5b$addr2line..function..FunctionAddress$u5d$$GT$..sort_by_key$LT$u64$C$addr2line..function..Functions$LT$gimli..read..endian_slice..EndianSlice$LT$gimli..endianity..LittleEndian$GT$$GT$..parse..$u7b$$u7b$closure$u7d$$u7d$$GT$..$u7b$$u7b$closure$u7d$$u7d$$GT$..$u7b$$u7b$closure$u7d$$u7d$$GT$$GT$17h4dab912f9efbbd2eE', symObjAddr: 0x85558, symBinAddr: 0x85F28, symSize: 0x4 }
  - { offsetInCU: 0x1A93A, offset: 0x79AD6, size: 0x8, addend: 0x0, symName: '__ZN4core3ptr273drop_in_place$LT$alloc..vec..Vec$LT$$LP$gimli..read..UnitOffset$C$addr2line..lazy..LazyCell$LT$core..result..Result$LT$addr2line..function..Function$LT$gimli..read..endian_slice..EndianSlice$LT$gimli..endianity..LittleEndian$GT$$GT$$C$gimli..read..Error$GT$$GT$$RP$$GT$$GT$17h1f055bc1fd9b72b7E', symObjAddr: 0x8555C, symBinAddr: 0x85F2C, symSize: 0x98 }
  - { offsetInCU: 0x1A94B, offset: 0x79AE7, size: 0x8, addend: 0x0, symName: '__ZN4core3ptr491drop_in_place$LT$core..slice..sort..merge_sort..BufGuard$LT$addr2line..function..FunctionAddress$C$alloc..slice..stable_sort$LT$addr2line..function..FunctionAddress$C$alloc..slice..$LT$impl$u20$$u5b$addr2line..function..FunctionAddress$u5d$$GT$..sort_by_key$LT$u64$C$addr2line..function..Functions$LT$gimli..read..endian_slice..EndianSlice$LT$gimli..endianity..LittleEndian$GT$$GT$..parse..$u7b$$u7b$closure$u7d$$u7d$$GT$..$u7b$$u7b$closure$u7d$$u7d$$GT$..$u7b$$u7b$closure$u7d$$u7d$$GT$$GT$17h4dab912f9efbbd2eE', symObjAddr: 0x85558, symBinAddr: 0x85F28, symSize: 0x4 }
  - { offsetInCU: 0x1A953, offset: 0x79AEF, size: 0x8, addend: 0x0, symName: '__ZN4core3ptr273drop_in_place$LT$alloc..vec..Vec$LT$$LP$gimli..read..UnitOffset$C$addr2line..lazy..LazyCell$LT$core..result..Result$LT$addr2line..function..Function$LT$gimli..read..endian_slice..EndianSlice$LT$gimli..endianity..LittleEndian$GT$$GT$$C$gimli..read..Error$GT$$GT$$RP$$GT$$GT$17h1f055bc1fd9b72b7E', symObjAddr: 0x8555C, symBinAddr: 0x85F2C, symSize: 0x98 }
  - { offsetInCU: 0x1A966, offset: 0x79B02, size: 0x8, addend: 0x0, symName: '__ZN4core3ptr273drop_in_place$LT$alloc..vec..Vec$LT$$LP$gimli..read..UnitOffset$C$addr2line..lazy..LazyCell$LT$core..result..Result$LT$addr2line..function..Function$LT$gimli..read..endian_slice..EndianSlice$LT$gimli..endianity..LittleEndian$GT$$GT$$C$gimli..read..Error$GT$$GT$$RP$$GT$$GT$17h1f055bc1fd9b72b7E', symObjAddr: 0x8555C, symBinAddr: 0x85F2C, symSize: 0x98 }
  - { offsetInCU: 0x1A96E, offset: 0x79B0A, size: 0x8, addend: 0x0, symName: '__ZN4core3ptr285drop_in_place$LT$alloc..boxed..Box$LT$$u5b$$LP$gimli..read..UnitOffset$C$addr2line..lazy..LazyCell$LT$core..result..Result$LT$addr2line..function..Function$LT$gimli..read..endian_slice..EndianSlice$LT$gimli..endianity..LittleEndian$GT$$GT$$C$gimli..read..Error$GT$$GT$$RP$$u5d$$GT$$GT$17haadf746c29ac0f3aE', symObjAddr: 0x855F4, symBinAddr: 0x85FC4, symSize: 0x98 }
  - { offsetInCU: 0x1ABCA, offset: 0x79D66, size: 0x8, addend: 0x0, symName: '__ZN4core3ptr285drop_in_place$LT$alloc..boxed..Box$LT$$u5b$$LP$gimli..read..UnitOffset$C$addr2line..lazy..LazyCell$LT$core..result..Result$LT$addr2line..function..Function$LT$gimli..read..endian_slice..EndianSlice$LT$gimli..endianity..LittleEndian$GT$$GT$$C$gimli..read..Error$GT$$GT$$RP$$u5d$$GT$$GT$17haadf746c29ac0f3aE', symObjAddr: 0x855F4, symBinAddr: 0x85FC4, symSize: 0x98 }
  - { offsetInCU: 0x1ABD2, offset: 0x79D6E, size: 0x8, addend: 0x0, symName: '__ZN4core3ptr184drop_in_place$LT$core..result..Result$LT$addr2line..function..Functions$LT$gimli..read..endian_slice..EndianSlice$LT$gimli..endianity..LittleEndian$GT$$GT$$C$gimli..read..Error$GT$$GT$17haee515e49dc4fdbaE', symObjAddr: 0x8568C, symBinAddr: 0x8605C, symSize: 0xAC }
  - { offsetInCU: 0x1ADEA, offset: 0x79F86, size: 0x8, addend: 0x0, symName: '__ZN4core3ptr184drop_in_place$LT$core..result..Result$LT$addr2line..function..Functions$LT$gimli..read..endian_slice..EndianSlice$LT$gimli..endianity..LittleEndian$GT$$GT$$C$gimli..read..Error$GT$$GT$17haee515e49dc4fdbaE', symObjAddr: 0x8568C, symBinAddr: 0x8605C, symSize: 0xAC }
  - { offsetInCU: 0x1ADF2, offset: 0x79F8E, size: 0x8, addend: 0x0, symName: '__ZN9addr2line8function17Function$LT$R$GT$14parse_children17hfb0f86a1cb3e0b1dE', symObjAddr: 0x85738, symBinAddr: 0x86108, symSize: 0xD44 }
  - { offsetInCU: 0x1B0E5, offset: 0x7A281, size: 0x8, addend: 0x0, symName: '__ZN4core3ptr164drop_in_place$LT$alloc..vec..Vec$LT$addr2line..function..InlinedFunction$LT$gimli..read..endian_slice..EndianSlice$LT$gimli..endianity..LittleEndian$GT$$GT$$GT$$GT$17h9fb9578ea95016d1E', symObjAddr: 0x86610, symBinAddr: 0x86FE0, symSize: 0x10 }
  - { offsetInCU: 0x1B0ED, offset: 0x7A289, size: 0x8, addend: 0x0, symName: '__ZN4core3ptr64drop_in_place$LT$alloc..vec..Vec$LT$addr2line..UnitRange$GT$$GT$17hfd63474c1d82014bE', symObjAddr: 0x86620, symBinAddr: 0x86FF0, symSize: 0x10 }
  - { offsetInCU: 0x1B102, offset: 0x7A29E, size: 0x8, addend: 0x0, symName: '__ZN4core3ptr164drop_in_place$LT$alloc..vec..Vec$LT$addr2line..function..InlinedFunction$LT$gimli..read..endian_slice..EndianSlice$LT$gimli..endianity..LittleEndian$GT$$GT$$GT$$GT$17h9fb9578ea95016d1E', symObjAddr: 0x86610, symBinAddr: 0x86FE0, symSize: 0x10 }
  - { offsetInCU: 0x1B11C, offset: 0x7A2B8, size: 0x8, addend: 0x0, symName: '__ZN4core3ptr164drop_in_place$LT$alloc..vec..Vec$LT$addr2line..function..InlinedFunction$LT$gimli..read..endian_slice..EndianSlice$LT$gimli..endianity..LittleEndian$GT$$GT$$GT$$GT$17h9fb9578ea95016d1E', symObjAddr: 0x86610, symBinAddr: 0x86FE0, symSize: 0x10 }
  - { offsetInCU: 0x1B136, offset: 0x7A2D2, size: 0x8, addend: 0x0, symName: '__ZN4core3ptr164drop_in_place$LT$alloc..vec..Vec$LT$addr2line..function..InlinedFunction$LT$gimli..read..endian_slice..EndianSlice$LT$gimli..endianity..LittleEndian$GT$$GT$$GT$$GT$17h9fb9578ea95016d1E', symObjAddr: 0x86610, symBinAddr: 0x86FE0, symSize: 0x10 }
  - { offsetInCU: 0x1B1C7, offset: 0x7A363, size: 0x8, addend: 0x0, symName: '__ZN4core3ptr64drop_in_place$LT$alloc..vec..Vec$LT$addr2line..UnitRange$GT$$GT$17hfd63474c1d82014bE', symObjAddr: 0x86620, symBinAddr: 0x86FF0, symSize: 0x10 }
  - { offsetInCU: 0x1B1CF, offset: 0x7A36B, size: 0x8, addend: 0x0, symName: '__ZN4core3ptr176drop_in_place$LT$alloc..boxed..Box$LT$$u5b$addr2line..function..InlinedFunction$LT$gimli..read..endian_slice..EndianSlice$LT$gimli..endianity..LittleEndian$GT$$GT$$u5d$$GT$$GT$17h6eae32688c885a14E', symObjAddr: 0x86630, symBinAddr: 0x87000, symSize: 0xC }
  - { offsetInCU: 0x1B1E4, offset: 0x7A380, size: 0x8, addend: 0x0, symName: '__ZN4core3ptr64drop_in_place$LT$alloc..vec..Vec$LT$addr2line..UnitRange$GT$$GT$17hfd63474c1d82014bE', symObjAddr: 0x86620, symBinAddr: 0x86FF0, symSize: 0x10 }
  - { offsetInCU: 0x1B1FE, offset: 0x7A39A, size: 0x8, addend: 0x0, symName: '__ZN4core3ptr64drop_in_place$LT$alloc..vec..Vec$LT$addr2line..UnitRange$GT$$GT$17hfd63474c1d82014bE', symObjAddr: 0x86620, symBinAddr: 0x86FF0, symSize: 0x10 }
  - { offsetInCU: 0x1B218, offset: 0x7A3B4, size: 0x8, addend: 0x0, symName: '__ZN4core3ptr64drop_in_place$LT$alloc..vec..Vec$LT$addr2line..UnitRange$GT$$GT$17hfd63474c1d82014bE', symObjAddr: 0x86620, symBinAddr: 0x86FF0, symSize: 0x10 }
  - { offsetInCU: 0x1B29A, offset: 0x7A436, size: 0x8, addend: 0x0, symName: '__ZN4core3ptr176drop_in_place$LT$alloc..boxed..Box$LT$$u5b$addr2line..function..InlinedFunction$LT$gimli..read..endian_slice..EndianSlice$LT$gimli..endianity..LittleEndian$GT$$GT$$u5d$$GT$$GT$17h6eae32688c885a14E', symObjAddr: 0x86630, symBinAddr: 0x87000, symSize: 0xC }
  - { offsetInCU: 0x1B2A2, offset: 0x7A43E, size: 0x8, addend: 0x0, symName: '__ZN5alloc7raw_vec19RawVec$LT$T$C$A$GT$16reserve_for_push17h5cdc75dd7963ea9dE', symObjAddr: 0x8663C, symBinAddr: 0x8700C, symSize: 0xC0 }
  - { offsetInCU: 0x1B2B7, offset: 0x7A453, size: 0x8, addend: 0x0, symName: '__ZN4core3ptr176drop_in_place$LT$alloc..boxed..Box$LT$$u5b$addr2line..function..InlinedFunction$LT$gimli..read..endian_slice..EndianSlice$LT$gimli..endianity..LittleEndian$GT$$GT$$u5d$$GT$$GT$17h6eae32688c885a14E', symObjAddr: 0x86630, symBinAddr: 0x87000, symSize: 0xC }
  - { offsetInCU: 0x1B2D1, offset: 0x7A46D, size: 0x8, addend: 0x0, symName: '__ZN4core3ptr176drop_in_place$LT$alloc..boxed..Box$LT$$u5b$addr2line..function..InlinedFunction$LT$gimli..read..endian_slice..EndianSlice$LT$gimli..endianity..LittleEndian$GT$$GT$$u5d$$GT$$GT$17h6eae32688c885a14E', symObjAddr: 0x86630, symBinAddr: 0x87000, symSize: 0xC }
  - { offsetInCU: 0x1B338, offset: 0x7A4D4, size: 0x8, addend: 0x0, symName: '__ZN4core3ptr168drop_in_place$LT$alloc..vec..Vec$LT$$RF$addr2line..function..InlinedFunction$LT$gimli..read..endian_slice..EndianSlice$LT$gimli..endianity..LittleEndian$GT$$GT$$GT$$GT$17hef3925752c764ab0E', symObjAddr: 0x866FC, symBinAddr: 0x870CC, symSize: 0x10 }
  - { offsetInCU: 0x1B340, offset: 0x7A4DC, size: 0x8, addend: 0x0, symName: __ZN9addr2line8function10name_entry17h38a72f99420e577cE, symObjAddr: 0x8670C, symBinAddr: 0x870DC, symSize: 0x3D0 }
  - { offsetInCU: 0x1B35D, offset: 0x7A4F9, size: 0x8, addend: 0x0, symName: '__ZN4core3ptr168drop_in_place$LT$alloc..vec..Vec$LT$$RF$addr2line..function..InlinedFunction$LT$gimli..read..endian_slice..EndianSlice$LT$gimli..endianity..LittleEndian$GT$$GT$$GT$$GT$17hef3925752c764ab0E', symObjAddr: 0x866FC, symBinAddr: 0x870CC, symSize: 0x10 }
  - { offsetInCU: 0x1B377, offset: 0x7A513, size: 0x8, addend: 0x0, symName: '__ZN4core3ptr168drop_in_place$LT$alloc..vec..Vec$LT$$RF$addr2line..function..InlinedFunction$LT$gimli..read..endian_slice..EndianSlice$LT$gimli..endianity..LittleEndian$GT$$GT$$GT$$GT$17hef3925752c764ab0E', symObjAddr: 0x866FC, symBinAddr: 0x870CC, symSize: 0x10 }
  - { offsetInCU: 0x1B391, offset: 0x7A52D, size: 0x8, addend: 0x0, symName: '__ZN4core3ptr168drop_in_place$LT$alloc..vec..Vec$LT$$RF$addr2line..function..InlinedFunction$LT$gimli..read..endian_slice..EndianSlice$LT$gimli..endianity..LittleEndian$GT$$GT$$GT$$GT$17hef3925752c764ab0E', symObjAddr: 0x866FC, symBinAddr: 0x870CC, symSize: 0x10 }
  - { offsetInCU: 0x1B45E, offset: 0x7A5FA, size: 0x8, addend: 0x0, symName: '__ZN4core3ptr124drop_in_place$LT$addr2line..ResDwarf$LT$gimli..read..endian_slice..EndianSlice$LT$gimli..endianity..LittleEndian$GT$$GT$$GT$17h688f725ca30a557cE', symObjAddr: 0x87274, symBinAddr: 0x87C44, symSize: 0x114 }
  - { offsetInCU: 0x1B466, offset: 0x7A602, size: 0x8, addend: 0x0, symName: '__ZN4core3ptr71drop_in_place$LT$std..backtrace_rs..symbolize..gimli..macho..Object$GT$17hf04c02636e848f32E', symObjAddr: 0x87388, symBinAddr: 0x87D58, symSize: 0xF0 }
  - { offsetInCU: 0x1B773, offset: 0x7A90F, size: 0x8, addend: 0x0, symName: '__ZN4core3ptr71drop_in_place$LT$std..backtrace_rs..symbolize..gimli..macho..Object$GT$17hf04c02636e848f32E', symObjAddr: 0x87388, symBinAddr: 0x87D58, symSize: 0xF0 }
  - { offsetInCU: 0x1B77B, offset: 0x7A917, size: 0x8, addend: 0x0, symName: '__ZN4core3ptr121drop_in_place$LT$core..option..Option$LT$core..option..Option$LT$std..backtrace_rs..symbolize..gimli..Mapping$GT$$GT$$GT$17he94e528d4b8e52c1E', symObjAddr: 0x87478, symBinAddr: 0x87E48, symSize: 0x14 }
  - { offsetInCU: 0x1BAE4, offset: 0x7AC80, size: 0x8, addend: 0x0, symName: '__ZN4core3ptr121drop_in_place$LT$core..option..Option$LT$core..option..Option$LT$std..backtrace_rs..symbolize..gimli..Mapping$GT$$GT$$GT$17he94e528d4b8e52c1E', symObjAddr: 0x87478, symBinAddr: 0x87E48, symSize: 0x14 }
  - { offsetInCU: 0x1BAEC, offset: 0x7AC88, size: 0x8, addend: 0x0, symName: __ZN5alloc5alloc8box_free17hebbe23513a408f6aE, symObjAddr: 0x8748C, symBinAddr: 0x87E5C, symSize: 0xC }
  - { offsetInCU: 0x1BB90, offset: 0x7AD2C, size: 0x8, addend: 0x0, symName: '__ZN4core3ptr123drop_in_place$LT$addr2line..ResUnit$LT$gimli..read..endian_slice..EndianSlice$LT$gimli..endianity..LittleEndian$GT$$GT$$GT$17hb92f5f904821fc27E', symObjAddr: 0x87498, symBinAddr: 0x87E68, symSize: 0xBC }
  - { offsetInCU: 0x1BB98, offset: 0x7AD34, size: 0x8, addend: 0x0, symName: '__ZN4core3ptr153drop_in_place$LT$alloc..raw_vec..RawVec$LT$addr2line..ResUnit$LT$gimli..read..endian_slice..EndianSlice$LT$gimli..endianity..LittleEndian$GT$$GT$$GT$$GT$17hfdfe6f8ed8679b4fE', symObjAddr: 0x87554, symBinAddr: 0x87F24, symSize: 0x10 }
  - { offsetInCU: 0x1BFA1, offset: 0x7B13D, size: 0x8, addend: 0x0, symName: '__ZN4core3ptr153drop_in_place$LT$alloc..raw_vec..RawVec$LT$addr2line..ResUnit$LT$gimli..read..endian_slice..EndianSlice$LT$gimli..endianity..LittleEndian$GT$$GT$$GT$$GT$17hfdfe6f8ed8679b4fE', symObjAddr: 0x87554, symBinAddr: 0x87F24, symSize: 0x10 }
  - { offsetInCU: 0x1BFA9, offset: 0x7B145, size: 0x8, addend: 0x0, symName: '__ZN4core3ptr154drop_in_place$LT$alloc..sync..Arc$LT$gimli..read..dwarf..Dwarf$LT$gimli..read..endian_slice..EndianSlice$LT$gimli..endianity..LittleEndian$GT$$GT$$GT$$GT$17h982b0a512d39b201E', symObjAddr: 0x87564, symBinAddr: 0x87F34, symSize: 0x24 }
  - { offsetInCU: 0x1BFBE, offset: 0x7B15A, size: 0x8, addend: 0x0, symName: '__ZN4core3ptr153drop_in_place$LT$alloc..raw_vec..RawVec$LT$addr2line..ResUnit$LT$gimli..read..endian_slice..EndianSlice$LT$gimli..endianity..LittleEndian$GT$$GT$$GT$$GT$17hfdfe6f8ed8679b4fE', symObjAddr: 0x87554, symBinAddr: 0x87F24, symSize: 0x10 }
  - { offsetInCU: 0x1BFD8, offset: 0x7B174, size: 0x8, addend: 0x0, symName: '__ZN4core3ptr153drop_in_place$LT$alloc..raw_vec..RawVec$LT$addr2line..ResUnit$LT$gimli..read..endian_slice..EndianSlice$LT$gimli..endianity..LittleEndian$GT$$GT$$GT$$GT$17hfdfe6f8ed8679b4fE', symObjAddr: 0x87554, symBinAddr: 0x87F24, symSize: 0x10 }
  - { offsetInCU: 0x1C059, offset: 0x7B1F5, size: 0x8, addend: 0x0, symName: '__ZN4core3ptr154drop_in_place$LT$alloc..sync..Arc$LT$gimli..read..dwarf..Dwarf$LT$gimli..read..endian_slice..EndianSlice$LT$gimli..endianity..LittleEndian$GT$$GT$$GT$$GT$17h982b0a512d39b201E', symObjAddr: 0x87564, symBinAddr: 0x87F34, symSize: 0x24 }
  - { offsetInCU: 0x1C061, offset: 0x7B1FD, size: 0x8, addend: 0x0, symName: '__ZN4core3ptr177drop_in_place$LT$core..option..Option$LT$alloc..boxed..Box$LT$addr2line..ResDwarf$LT$gimli..read..endian_slice..EndianSlice$LT$gimli..endianity..LittleEndian$GT$$GT$$GT$$GT$$GT$17hd3feb7b665b80c08E', symObjAddr: 0x87588, symBinAddr: 0x87F58, symSize: 0x4C }
  - { offsetInCU: 0x1C076, offset: 0x7B212, size: 0x8, addend: 0x0, symName: '__ZN4core3ptr154drop_in_place$LT$alloc..sync..Arc$LT$gimli..read..dwarf..Dwarf$LT$gimli..read..endian_slice..EndianSlice$LT$gimli..endianity..LittleEndian$GT$$GT$$GT$$GT$17h982b0a512d39b201E', symObjAddr: 0x87564, symBinAddr: 0x87F34, symSize: 0x24 }
  - { offsetInCU: 0x1C090, offset: 0x7B22C, size: 0x8, addend: 0x0, symName: '__ZN4core3ptr154drop_in_place$LT$alloc..sync..Arc$LT$gimli..read..dwarf..Dwarf$LT$gimli..read..endian_slice..EndianSlice$LT$gimli..endianity..LittleEndian$GT$$GT$$GT$$GT$17h982b0a512d39b201E', symObjAddr: 0x87564, symBinAddr: 0x87F34, symSize: 0x24 }
  - { offsetInCU: 0x1C0AA, offset: 0x7B246, size: 0x8, addend: 0x0, symName: '__ZN4core3ptr154drop_in_place$LT$alloc..sync..Arc$LT$gimli..read..dwarf..Dwarf$LT$gimli..read..endian_slice..EndianSlice$LT$gimli..endianity..LittleEndian$GT$$GT$$GT$$GT$17h982b0a512d39b201E', symObjAddr: 0x87564, symBinAddr: 0x87F34, symSize: 0x24 }
  - { offsetInCU: 0x1C112, offset: 0x7B2AE, size: 0x8, addend: 0x0, symName: '__ZN4core3ptr177drop_in_place$LT$core..option..Option$LT$alloc..boxed..Box$LT$addr2line..ResDwarf$LT$gimli..read..endian_slice..EndianSlice$LT$gimli..endianity..LittleEndian$GT$$GT$$GT$$GT$$GT$17hd3feb7b665b80c08E', symObjAddr: 0x87588, symBinAddr: 0x87F58, symSize: 0x4C }
  - { offsetInCU: 0x1C11A, offset: 0x7B2B6, size: 0x8, addend: 0x0, symName: '__ZN5alloc4sync12Arc$LT$T$GT$9drop_slow17hb39082e040a0d391E', symObjAddr: 0x875D4, symBinAddr: 0x87FA4, symSize: 0x78 }
  - { offsetInCU: 0x1C281, offset: 0x7B41D, size: 0x8, addend: 0x0, symName: '__ZN4core3ptr55drop_in_place$LT$gimli..read..abbrev..Abbreviations$GT$17h7444570473eb8f86E', symObjAddr: 0x8764C, symBinAddr: 0x8801C, symSize: 0x10C }
  - { offsetInCU: 0x1C289, offset: 0x7B425, size: 0x8, addend: 0x0, symName: '__ZN4core3ptr181drop_in_place$LT$core..option..Option$LT$gimli..read..line..IncompleteLineProgram$LT$gimli..read..endian_slice..EndianSlice$LT$gimli..endianity..LittleEndian$GT$$C$usize$GT$$GT$$GT$17h1888c87e871d5c2cE', symObjAddr: 0x87758, symBinAddr: 0x88128, symSize: 0x70 }
  - { offsetInCU: 0x1C688, offset: 0x7B824, size: 0x8, addend: 0x0, symName: '__ZN4core3ptr181drop_in_place$LT$core..option..Option$LT$gimli..read..line..IncompleteLineProgram$LT$gimli..read..endian_slice..EndianSlice$LT$gimli..endianity..LittleEndian$GT$$C$usize$GT$$GT$$GT$17h1888c87e871d5c2cE', symObjAddr: 0x87758, symBinAddr: 0x88128, symSize: 0x70 }
  - { offsetInCU: 0x1C690, offset: 0x7B82C, size: 0x8, addend: 0x0, symName: '__ZN4core3ptr119drop_in_place$LT$addr2line..lazy..LazyCell$LT$core..result..Result$LT$addr2line..Lines$C$gimli..read..Error$GT$$GT$$GT$17h3f6cd1b53490ffe2E', symObjAddr: 0x877C8, symBinAddr: 0x88198, symSize: 0x14 }
  - { offsetInCU: 0x1C9C7, offset: 0x7BB63, size: 0x8, addend: 0x0, symName: '__ZN4core3ptr119drop_in_place$LT$addr2line..lazy..LazyCell$LT$core..result..Result$LT$addr2line..Lines$C$gimli..read..Error$GT$$GT$$GT$17h3f6cd1b53490ffe2E', symObjAddr: 0x877C8, symBinAddr: 0x88198, symSize: 0x14 }
  - { offsetInCU: 0x1C9CF, offset: 0x7BB6B, size: 0x8, addend: 0x0, symName: '__ZN4core3ptr217drop_in_place$LT$addr2line..lazy..LazyCell$LT$core..result..Result$LT$addr2line..function..Functions$LT$gimli..read..endian_slice..EndianSlice$LT$gimli..endianity..LittleEndian$GT$$GT$$C$gimli..read..Error$GT$$GT$$GT$17h2a7d0435ae3b318cE', symObjAddr: 0x877DC, symBinAddr: 0x881AC, symSize: 0x14 }
  - { offsetInCU: 0x1C9E4, offset: 0x7BB80, size: 0x8, addend: 0x0, symName: '__ZN4core3ptr119drop_in_place$LT$addr2line..lazy..LazyCell$LT$core..result..Result$LT$addr2line..Lines$C$gimli..read..Error$GT$$GT$$GT$17h3f6cd1b53490ffe2E', symObjAddr: 0x877C8, symBinAddr: 0x88198, symSize: 0x14 }
  - { offsetInCU: 0x1C9FE, offset: 0x7BB9A, size: 0x8, addend: 0x0, symName: '__ZN4core3ptr119drop_in_place$LT$addr2line..lazy..LazyCell$LT$core..result..Result$LT$addr2line..Lines$C$gimli..read..Error$GT$$GT$$GT$17h3f6cd1b53490ffe2E', symObjAddr: 0x877C8, symBinAddr: 0x88198, symSize: 0x14 }
  - { offsetInCU: 0x1CA16, offset: 0x7BBB2, size: 0x8, addend: 0x0, symName: '__ZN4core3ptr217drop_in_place$LT$addr2line..lazy..LazyCell$LT$core..result..Result$LT$addr2line..function..Functions$LT$gimli..read..endian_slice..EndianSlice$LT$gimli..endianity..LittleEndian$GT$$GT$$C$gimli..read..Error$GT$$GT$$GT$17h2a7d0435ae3b318cE', symObjAddr: 0x877DC, symBinAddr: 0x881AC, symSize: 0x14 }
  - { offsetInCU: 0x1CA1E, offset: 0x7BBBA, size: 0x8, addend: 0x0, symName: '__ZN5alloc11collections5btree3map25IntoIter$LT$K$C$V$C$A$GT$10dying_next17hdd1ab3686764354aE', symObjAddr: 0x877F0, symBinAddr: 0x881C0, symSize: 0x18C }
  - { offsetInCU: 0x1CA33, offset: 0x7BBCF, size: 0x8, addend: 0x0, symName: '__ZN4core3ptr217drop_in_place$LT$addr2line..lazy..LazyCell$LT$core..result..Result$LT$addr2line..function..Functions$LT$gimli..read..endian_slice..EndianSlice$LT$gimli..endianity..LittleEndian$GT$$GT$$C$gimli..read..Error$GT$$GT$$GT$17h2a7d0435ae3b318cE', symObjAddr: 0x877DC, symBinAddr: 0x881AC, symSize: 0x14 }
  - { offsetInCU: 0x1CA4D, offset: 0x7BBE9, size: 0x8, addend: 0x0, symName: '__ZN4core3ptr217drop_in_place$LT$addr2line..lazy..LazyCell$LT$core..result..Result$LT$addr2line..function..Functions$LT$gimli..read..endian_slice..EndianSlice$LT$gimli..endianity..LittleEndian$GT$$GT$$C$gimli..read..Error$GT$$GT$$GT$17h2a7d0435ae3b318cE', symObjAddr: 0x877DC, symBinAddr: 0x881AC, symSize: 0x14 }
  - { offsetInCU: 0x1CACE, offset: 0x7BC6A, size: 0x8, addend: 0x0, symName: '__ZN4core3ptr82drop_in_place$LT$alloc..sync..ArcInner$LT$std..sys..unix..fs..InnerReadDir$GT$$GT$17h00f963c14d25e7d0E', symObjAddr: 0x87AAC, symBinAddr: 0x883F0, symSize: 0x50 }
  - { offsetInCU: 0x1CAD6, offset: 0x7BC72, size: 0x8, addend: 0x0, symName: __ZN3std12backtrace_rs9symbolize5gimli5macho6Object7section17h57324cd404c3fd5fE, symObjAddr: 0x87AFC, symBinAddr: 0x88440, symSize: 0x410 }
  - { offsetInCU: 0x1CC25, offset: 0x7BDC1, size: 0x8, addend: 0x0, symName: '__ZN4core3ptr159drop_in_place$LT$alloc..sync..ArcInner$LT$gimli..read..dwarf..Dwarf$LT$gimli..read..endian_slice..EndianSlice$LT$gimli..endianity..LittleEndian$GT$$GT$$GT$$GT$17hbeff9f36df6b7262E', symObjAddr: 0x87F0C, symBinAddr: 0x88850, symSize: 0x28 }
  - { offsetInCU: 0x1CC2D, offset: 0x7BDC9, size: 0x8, addend: 0x0, symName: '__ZN9addr2line17ResDwarf$LT$R$GT$5parse17hdb321e617da9181dE', symObjAddr: 0x87F34, symBinAddr: 0x88878, symSize: 0x3F5C }
  - { offsetInCU: 0x1CC4A, offset: 0x7BDE6, size: 0x8, addend: 0x0, symName: '__ZN4core3ptr159drop_in_place$LT$alloc..sync..ArcInner$LT$gimli..read..dwarf..Dwarf$LT$gimli..read..endian_slice..EndianSlice$LT$gimli..endianity..LittleEndian$GT$$GT$$GT$$GT$17hbeff9f36df6b7262E', symObjAddr: 0x87F0C, symBinAddr: 0x88850, symSize: 0x28 }
  - { offsetInCU: 0x1CC64, offset: 0x7BE00, size: 0x8, addend: 0x0, symName: '__ZN4core3ptr159drop_in_place$LT$alloc..sync..ArcInner$LT$gimli..read..dwarf..Dwarf$LT$gimli..read..endian_slice..EndianSlice$LT$gimli..endianity..LittleEndian$GT$$GT$$GT$$GT$17hbeff9f36df6b7262E', symObjAddr: 0x87F0C, symBinAddr: 0x88850, symSize: 0x28 }
  - { offsetInCU: 0x1CE5B, offset: 0x7BFF7, size: 0x8, addend: 0x0, symName: '__ZN4core3ptr130drop_in_place$LT$gimli..read..dwarf..Dwarf$LT$gimli..read..endian_slice..EndianSlice$LT$gimli..endianity..LittleEndian$GT$$GT$$GT$17h018f9b419d6b3afcE', symObjAddr: 0x8BE90, symBinAddr: 0x8C7D4, symSize: 0x28 }
  - { offsetInCU: 0x1CE63, offset: 0x7BFFF, size: 0x8, addend: 0x0, symName: '__ZN4core3ptr118drop_in_place$LT$alloc..vec..Vec$LT$$LP$gimli..common..DebugInfoOffset$C$gimli..common..DebugArangesOffset$RP$$GT$$GT$17h93b2714e04348aabE', symObjAddr: 0x8BEB8, symBinAddr: 0x8C7FC, symSize: 0x10 }
  - { offsetInCU: 0x1CE78, offset: 0x7C014, size: 0x8, addend: 0x0, symName: '__ZN4core3ptr130drop_in_place$LT$gimli..read..dwarf..Dwarf$LT$gimli..read..endian_slice..EndianSlice$LT$gimli..endianity..LittleEndian$GT$$GT$$GT$17h018f9b419d6b3afcE', symObjAddr: 0x8BE90, symBinAddr: 0x8C7D4, symSize: 0x28 }
  - { offsetInCU: 0x1CF15, offset: 0x7C0B1, size: 0x8, addend: 0x0, symName: '__ZN4core3ptr118drop_in_place$LT$alloc..vec..Vec$LT$$LP$gimli..common..DebugInfoOffset$C$gimli..common..DebugArangesOffset$RP$$GT$$GT$17h93b2714e04348aabE', symObjAddr: 0x8BEB8, symBinAddr: 0x8C7FC, symSize: 0x10 }
  - { offsetInCU: 0x1CF1D, offset: 0x7C0B9, size: 0x8, addend: 0x0, symName: '__ZN5gimli4read7aranges30ArangeHeader$LT$R$C$Offset$GT$5parse17h71ad12bd0efe254aE', symObjAddr: 0x8BEC8, symBinAddr: 0x8C80C, symSize: 0x344 }
  - { offsetInCU: 0x1CF32, offset: 0x7C0CE, size: 0x8, addend: 0x0, symName: '__ZN4core3ptr118drop_in_place$LT$alloc..vec..Vec$LT$$LP$gimli..common..DebugInfoOffset$C$gimli..common..DebugArangesOffset$RP$$GT$$GT$17h93b2714e04348aabE', symObjAddr: 0x8BEB8, symBinAddr: 0x8C7FC, symSize: 0x10 }
  - { offsetInCU: 0x1CF4C, offset: 0x7C0E8, size: 0x8, addend: 0x0, symName: '__ZN4core3ptr118drop_in_place$LT$alloc..vec..Vec$LT$$LP$gimli..common..DebugInfoOffset$C$gimli..common..DebugArangesOffset$RP$$GT$$GT$17h93b2714e04348aabE', symObjAddr: 0x8BEB8, symBinAddr: 0x8C7FC, symSize: 0x10 }
  - { offsetInCU: 0x1CF66, offset: 0x7C102, size: 0x8, addend: 0x0, symName: '__ZN4core3ptr118drop_in_place$LT$alloc..vec..Vec$LT$$LP$gimli..common..DebugInfoOffset$C$gimli..common..DebugArangesOffset$RP$$GT$$GT$17h93b2714e04348aabE', symObjAddr: 0x8BEB8, symBinAddr: 0x8C7FC, symSize: 0x10 }
  - { offsetInCU: 0x1CFE8, offset: 0x7C184, size: 0x8, addend: 0x0, symName: '__ZN4core3ptr52drop_in_place$LT$gimli..read..abbrev..Attributes$GT$17h64e8e74e4ae6840dE', symObjAddr: 0x8C20C, symBinAddr: 0x8CB50, symSize: 0x1C }
  - { offsetInCU: 0x1CFF0, offset: 0x7C18C, size: 0x8, addend: 0x0, symName: __ZN5gimli4read4line15FileEntryFormat5parse17h68488c0557477708E, symObjAddr: 0x8C228, symBinAddr: 0x8CB6C, symSize: 0x2AC }
  - { offsetInCU: 0x1D0CD, offset: 0x7C269, size: 0x8, addend: 0x0, symName: '__ZN4core3ptr164drop_in_place$LT$alloc..vec..Vec$LT$gimli..read..line..FileEntry$LT$gimli..read..endian_slice..EndianSlice$LT$gimli..endianity..LittleEndian$GT$$C$usize$GT$$GT$$GT$17h94b88e763fa51901E', symObjAddr: 0x8CE54, symBinAddr: 0x8D798, symSize: 0x10 }
  - { offsetInCU: 0x1D0D5, offset: 0x7C271, size: 0x8, addend: 0x0, symName: '__ZN5alloc7raw_vec19RawVec$LT$T$C$A$GT$16reserve_for_push17h30eee68f360b2935E', symObjAddr: 0x8CE64, symBinAddr: 0x8D7A8, symSize: 0xD4 }
  - { offsetInCU: 0x1D0EA, offset: 0x7C286, size: 0x8, addend: 0x0, symName: '__ZN4core3ptr164drop_in_place$LT$alloc..vec..Vec$LT$gimli..read..line..FileEntry$LT$gimli..read..endian_slice..EndianSlice$LT$gimli..endianity..LittleEndian$GT$$C$usize$GT$$GT$$GT$17h94b88e763fa51901E', symObjAddr: 0x8CE54, symBinAddr: 0x8D798, symSize: 0x10 }
  - { offsetInCU: 0x1D104, offset: 0x7C2A0, size: 0x8, addend: 0x0, symName: '__ZN4core3ptr164drop_in_place$LT$alloc..vec..Vec$LT$gimli..read..line..FileEntry$LT$gimli..read..endian_slice..EndianSlice$LT$gimli..endianity..LittleEndian$GT$$C$usize$GT$$GT$$GT$17h94b88e763fa51901E', symObjAddr: 0x8CE54, symBinAddr: 0x8D798, symSize: 0x10 }
  - { offsetInCU: 0x1D11E, offset: 0x7C2BA, size: 0x8, addend: 0x0, symName: '__ZN4core3ptr164drop_in_place$LT$alloc..vec..Vec$LT$gimli..read..line..FileEntry$LT$gimli..read..endian_slice..EndianSlice$LT$gimli..endianity..LittleEndian$GT$$C$usize$GT$$GT$$GT$17h94b88e763fa51901E', symObjAddr: 0x8CE54, symBinAddr: 0x8D798, symSize: 0x10 }
  - { offsetInCU: 0x1D1A0, offset: 0x7C33C, size: 0x8, addend: 0x0, symName: '__ZN4core3ptr137drop_in_place$LT$gimli..read..dwarf..Unit$LT$gimli..read..endian_slice..EndianSlice$LT$gimli..endianity..LittleEndian$GT$$C$usize$GT$$GT$17h545e11a40fa0b018E', symObjAddr: 0x8CF38, symBinAddr: 0x8D87C, symSize: 0x8C }
  - { offsetInCU: 0x1D1A8, offset: 0x7C344, size: 0x8, addend: 0x0, symName: '__ZN4core3ptr146drop_in_place$LT$alloc..vec..Vec$LT$addr2line..ResUnit$LT$gimli..read..endian_slice..EndianSlice$LT$gimli..endianity..LittleEndian$GT$$GT$$GT$$GT$17hd97a853937c22d44E', symObjAddr: 0x8CFC4, symBinAddr: 0x8D908, symSize: 0xAC }
  - { offsetInCU: 0x1D4FA, offset: 0x7C696, size: 0x8, addend: 0x0, symName: '__ZN4core3ptr146drop_in_place$LT$alloc..vec..Vec$LT$addr2line..ResUnit$LT$gimli..read..endian_slice..EndianSlice$LT$gimli..endianity..LittleEndian$GT$$GT$$GT$$GT$17hd97a853937c22d44E', symObjAddr: 0x8CFC4, symBinAddr: 0x8D908, symSize: 0xAC }
  - { offsetInCU: 0x1D502, offset: 0x7C69E, size: 0x8, addend: 0x0, symName: '__ZN5alloc7raw_vec19RawVec$LT$T$C$A$GT$16reserve_for_push17h3e4edcb03bc157f0E', symObjAddr: 0x8D070, symBinAddr: 0x8D9B4, symSize: 0xC0 }
  - { offsetInCU: 0x1D5D1, offset: 0x7C76D, size: 0x8, addend: 0x0, symName: '__ZN4core3ptr144drop_in_place$LT$alloc..vec..Vec$LT$core..option..Option$LT$core..option..Option$LT$std..backtrace_rs..symbolize..gimli..Mapping$GT$$GT$$GT$$GT$17h70164f22442888b8E', symObjAddr: 0x8D130, symBinAddr: 0x8DA74, symSize: 0xBC }
  - { offsetInCU: 0x1D5D9, offset: 0x7C775, size: 0x8, addend: 0x0, symName: '__ZN4core3ptr72drop_in_place$LT$core..option..Option$LT$object..read..ObjectMap$GT$$GT$17hb78313a22742eb42E', symObjAddr: 0x8D1EC, symBinAddr: 0x8DB30, symSize: 0x48 }
  - { offsetInCU: 0x1D6D2, offset: 0x7C86E, size: 0x8, addend: 0x0, symName: '__ZN4core3ptr72drop_in_place$LT$core..option..Option$LT$object..read..ObjectMap$GT$$GT$17hb78313a22742eb42E', symObjAddr: 0x8D1EC, symBinAddr: 0x8DB30, symSize: 0x48 }
  - { offsetInCU: 0x1D6DA, offset: 0x7C876, size: 0x8, addend: 0x0, symName: '__ZN4core3ptr151drop_in_place$LT$alloc..raw_vec..RawVec$LT$core..option..Option$LT$core..option..Option$LT$std..backtrace_rs..symbolize..gimli..Mapping$GT$$GT$$GT$$GT$17h7b48b41483fffd0cE', symObjAddr: 0x8D234, symBinAddr: 0x8DB78, symSize: 0x10 }
  - { offsetInCU: 0x1D8B1, offset: 0x7CA4D, size: 0x8, addend: 0x0, symName: '__ZN4core3ptr151drop_in_place$LT$alloc..raw_vec..RawVec$LT$core..option..Option$LT$core..option..Option$LT$std..backtrace_rs..symbolize..gimli..Mapping$GT$$GT$$GT$$GT$17h7b48b41483fffd0cE', symObjAddr: 0x8D234, symBinAddr: 0x8DB78, symSize: 0x10 }
  - { offsetInCU: 0x1D8B9, offset: 0x7CA55, size: 0x8, addend: 0x0, symName: '__ZN5alloc7raw_vec19RawVec$LT$T$C$A$GT$7reserve21do_reserve_and_handle17h5a05cce8e5d8d921E', symObjAddr: 0x8D244, symBinAddr: 0xBF3BC, symSize: 0xD4 }
  - { offsetInCU: 0x1D8CE, offset: 0x7CA6A, size: 0x8, addend: 0x0, symName: '__ZN4core3ptr151drop_in_place$LT$alloc..raw_vec..RawVec$LT$core..option..Option$LT$core..option..Option$LT$std..backtrace_rs..symbolize..gimli..Mapping$GT$$GT$$GT$$GT$17h7b48b41483fffd0cE', symObjAddr: 0x8D234, symBinAddr: 0x8DB78, symSize: 0x10 }
  - { offsetInCU: 0x1D8E8, offset: 0x7CA84, size: 0x8, addend: 0x0, symName: '__ZN4core3ptr151drop_in_place$LT$alloc..raw_vec..RawVec$LT$core..option..Option$LT$core..option..Option$LT$std..backtrace_rs..symbolize..gimli..Mapping$GT$$GT$$GT$$GT$17h7b48b41483fffd0cE', symObjAddr: 0x8D234, symBinAddr: 0x8DB78, symSize: 0x10 }
  - { offsetInCU: 0x1DA79, offset: 0x7CC15, size: 0x8, addend: 0x0, symName: '__ZN4core3ptr44drop_in_place$LT$object..read..ObjectMap$GT$17hc74c698036190a9fE', symObjAddr: 0x8F24C, symBinAddr: 0x8F9FC, symSize: 0x44 }
  - { offsetInCU: 0x1DA81, offset: 0x7CC1D, size: 0x8, addend: 0x0, symName: __ZN4core5slice4sort8heapsort17ha7d9f8ceedcf981eE, symObjAddr: 0x8F290, symBinAddr: 0xBF550, symSize: 0x240 }
  - { offsetInCU: 0x1DC25, offset: 0x7CDC1, size: 0x8, addend: 0x0, symName: '__ZN4core3ptr86drop_in_place$LT$core..slice..sort..CopyOnDrop$LT$object..read..ObjectMapEntry$GT$$GT$17h7d0608c0db406970E', symObjAddr: 0x8F940, symBinAddr: 0x8FA40, symSize: 0x14 }
  - { offsetInCU: 0x1DC2D, offset: 0x7CDC9, size: 0x8, addend: 0x0, symName: __ZN4core5slice4sort8heapsort17h55a2014d81c9e902E, symObjAddr: 0x8F954, symBinAddr: 0xBFC00, symSize: 0x238 }
  - { offsetInCU: 0x1DC42, offset: 0x7CDDE, size: 0x8, addend: 0x0, symName: '__ZN4core3ptr86drop_in_place$LT$core..slice..sort..CopyOnDrop$LT$object..read..ObjectMapEntry$GT$$GT$17h7d0608c0db406970E', symObjAddr: 0x8F940, symBinAddr: 0x8FA40, symSize: 0x14 }
  - { offsetInCU: 0x1DC5C, offset: 0x7CDF8, size: 0x8, addend: 0x0, symName: '__ZN4core3ptr86drop_in_place$LT$core..slice..sort..CopyOnDrop$LT$object..read..ObjectMapEntry$GT$$GT$17h7d0608c0db406970E', symObjAddr: 0x8F940, symBinAddr: 0x8FA40, symSize: 0x14 }
  - { offsetInCU: 0x1DC73, offset: 0x7CE0F, size: 0x8, addend: 0x0, symName: '__ZN4core3ptr88drop_in_place$LT$core..slice..sort..CopyOnDrop$LT$$LP$$RF$$u5b$u8$u5d$$C$u64$RP$$GT$$GT$17h391ea80a629f0e8eE', symObjAddr: 0x8FFC8, symBinAddr: 0x8FA54, symSize: 0x14 }
  - { offsetInCU: 0x1DC7B, offset: 0x7CE17, size: 0x8, addend: 0x0, symName: __ZN4core5slice4sort8heapsort17hc1d311dedadceb9cE, symObjAddr: 0x8FFDC, symBinAddr: 0xC0274, symSize: 0xD0 }
  - { offsetInCU: 0x1DC90, offset: 0x7CE2C, size: 0x8, addend: 0x0, symName: '__ZN4core3ptr88drop_in_place$LT$core..slice..sort..CopyOnDrop$LT$$LP$$RF$$u5b$u8$u5d$$C$u64$RP$$GT$$GT$17h391ea80a629f0e8eE', symObjAddr: 0x8FFC8, symBinAddr: 0x8FA54, symSize: 0x14 }
  - { offsetInCU: 0x1DCAA, offset: 0x7CE46, size: 0x8, addend: 0x0, symName: '__ZN4core3ptr88drop_in_place$LT$core..slice..sort..CopyOnDrop$LT$$LP$$RF$$u5b$u8$u5d$$C$u64$RP$$GT$$GT$17h391ea80a629f0e8eE', symObjAddr: 0x8FFC8, symBinAddr: 0x8FA54, symSize: 0x14 }
  - { offsetInCU: 0x1DCDF, offset: 0x7CE7B, size: 0x8, addend: 0x0, symName: '__ZN4core3ptr111drop_in_place$LT$alloc..raw_vec..RawVec$LT$$LP$usize$C$std..backtrace_rs..symbolize..gimli..Mapping$RP$$GT$$GT$17h6bc40d0733aaabacE', symObjAddr: 0x908D0, symBinAddr: 0x8FE8C, symSize: 0x10 }
  - { offsetInCU: 0x1DCE7, offset: 0x7CE83, size: 0x8, addend: 0x0, symName: __ZN3std12backtrace_rs9symbolize6Symbol4name17h42e94ee8d935fdadE, symObjAddr: 0x908E0, symBinAddr: 0x8FE9C, symSize: 0xF8 }
  - { offsetInCU: 0x1DCFC, offset: 0x7CE98, size: 0x8, addend: 0x0, symName: '__ZN4core3ptr111drop_in_place$LT$alloc..raw_vec..RawVec$LT$$LP$usize$C$std..backtrace_rs..symbolize..gimli..Mapping$RP$$GT$$GT$17h6bc40d0733aaabacE', symObjAddr: 0x908D0, symBinAddr: 0x8FE8C, symSize: 0x10 }
  - { offsetInCU: 0x1DD16, offset: 0x7CEB2, size: 0x8, addend: 0x0, symName: '__ZN4core3ptr111drop_in_place$LT$alloc..raw_vec..RawVec$LT$$LP$usize$C$std..backtrace_rs..symbolize..gimli..Mapping$RP$$GT$$GT$17h6bc40d0733aaabacE', symObjAddr: 0x908D0, symBinAddr: 0x8FE8C, symSize: 0x10 }
  - { offsetInCU: 0x1DDD3, offset: 0x7CF6F, size: 0x8, addend: 0x0, symName: '__ZN4core3ptr75drop_in_place$LT$std..sys..unix..locks..pthread_rwlock..AllocatedRwLock$GT$17h20fdc8a668f8bd76E', symObjAddr: 0x90DEC, symBinAddr: 0x90288, symSize: 0x4 }
  - { offsetInCU: 0x1DDDB, offset: 0x7CF77, size: 0x8, addend: 0x0, symName: '__ZN4core3ptr64drop_in_place$LT$std..backtrace_rs..print..BacktraceFrameFmt$GT$17h554003865f3f2a4fE', symObjAddr: 0x90DF0, symBinAddr: 0x9028C, symSize: 0x10 }
  - { offsetInCU: 0x1DDF0, offset: 0x7CF8C, size: 0x8, addend: 0x0, symName: '__ZN4core3ptr75drop_in_place$LT$std..sys..unix..locks..pthread_rwlock..AllocatedRwLock$GT$17h20fdc8a668f8bd76E', symObjAddr: 0x90DEC, symBinAddr: 0x90288, symSize: 0x4 }
  - { offsetInCU: 0x1DDF8, offset: 0x7CF94, size: 0x8, addend: 0x0, symName: '__ZN4core3ptr64drop_in_place$LT$std..backtrace_rs..print..BacktraceFrameFmt$GT$17h554003865f3f2a4fE', symObjAddr: 0x90DF0, symBinAddr: 0x9028C, symSize: 0x10 }
  - { offsetInCU: 0x1DE07, offset: 0x7CFA3, size: 0x8, addend: 0x0, symName: '__ZN4core3ptr64drop_in_place$LT$std..backtrace_rs..print..BacktraceFrameFmt$GT$17h554003865f3f2a4fE', symObjAddr: 0x90DF0, symBinAddr: 0x9028C, symSize: 0x10 }
  - { offsetInCU: 0x1DE0F, offset: 0x7CFAB, size: 0x8, addend: 0x0, symName: __ZN3std12backtrace_rs5print17BacktraceFrameFmt21print_raw_with_column17h8c13d9fae29f5b4dE, symObjAddr: 0x90E00, symBinAddr: 0x9029C, symSize: 0x4A4 }
  - { offsetInCU: 0x1DE24, offset: 0x7CFC0, size: 0x8, addend: 0x0, symName: '__ZN4core3ptr64drop_in_place$LT$std..backtrace_rs..print..BacktraceFrameFmt$GT$17h554003865f3f2a4fE', symObjAddr: 0x90DF0, symBinAddr: 0x9028C, symSize: 0x10 }
  - { offsetInCU: 0x1DE3B, offset: 0x7CFD7, size: 0x8, addend: 0x0, symName: '__ZN4core3ptr71drop_in_place$LT$std..sync..rwlock..RwLockReadGuard$LT$$LP$$RP$$GT$$GT$17h9e852fef908926ccE', symObjAddr: 0x913DC, symBinAddr: 0x90878, symSize: 0x3C }
  - { offsetInCU: 0x1DE43, offset: 0x7CFDF, size: 0x8, addend: 0x0, symName: '__ZN60_$LT$std..io..error..Error$u20$as$u20$core..fmt..Display$GT$3fmt17h766d95c2d368631bE', symObjAddr: 0x91418, symBinAddr: 0x908B4, symSize: 0x510 }
  - { offsetInCU: 0x1DE5F, offset: 0x7CFFB, size: 0x8, addend: 0x0, symName: '__ZN60_$LT$std..io..error..Error$u20$as$u20$core..fmt..Display$GT$3fmt17h766d95c2d368631bE', symObjAddr: 0x91418, symBinAddr: 0x908B4, symSize: 0x510 }
  - { offsetInCU: 0x1DE79, offset: 0x7D015, size: 0x8, addend: 0x0, symName: '__ZN60_$LT$std..io..error..Error$u20$as$u20$core..fmt..Display$GT$3fmt17h766d95c2d368631bE', symObjAddr: 0x91418, symBinAddr: 0x908B4, symSize: 0x510 }
  - { offsetInCU: 0x1DFDB, offset: 0x7D177, size: 0x8, addend: 0x0, symName: '__ZN4core3ptr84drop_in_place$LT$std..io..stdio..set_output_capture..$u7b$$u7b$closure$u7d$$u7d$$GT$17h8ee75496711b3edaE', symObjAddr: 0x91DDC, symBinAddr: 0x91174, symSize: 0x2C }
  - { offsetInCU: 0x1DFE3, offset: 0x7D17F, size: 0x8, addend: 0x0, symName: __ZN3std6thread5local2os13destroy_value17he3ab93a411a345e6E, symObjAddr: 0x91E08, symBinAddr: 0x911A0, symSize: 0xA0 }
  - { offsetInCU: 0x1DFF8, offset: 0x7D194, size: 0x8, addend: 0x0, symName: '__ZN4core3ptr84drop_in_place$LT$std..io..stdio..set_output_capture..$u7b$$u7b$closure$u7d$$u7d$$GT$17h8ee75496711b3edaE', symObjAddr: 0x91DDC, symBinAddr: 0x91174, symSize: 0x2C }
  - { offsetInCU: 0x1E0D1, offset: 0x7D26D, size: 0x8, addend: 0x0, symName: '__ZN4core3ptr215drop_in_place$LT$alloc..boxed..Box$LT$std..thread..local..os..Value$LT$core..cell..Cell$LT$core..option..Option$LT$alloc..sync..Arc$LT$std..sync..mutex..Mutex$LT$alloc..vec..Vec$LT$u8$GT$$GT$$GT$$GT$$GT$$GT$$GT$$GT$17h3af527a13eea77f9E', symObjAddr: 0x91EA8, symBinAddr: 0x91240, symSize: 0x54 }
  - { offsetInCU: 0x1E0D9, offset: 0x7D275, size: 0x8, addend: 0x0, symName: __ZN3std2io5Write9write_fmt17h9ce3f3087b088578E, symObjAddr: 0x91EFC, symBinAddr: 0x91294, symSize: 0xEC }
  - { offsetInCU: 0x1E237, offset: 0x7D3D3, size: 0x8, addend: 0x0, symName: __ZN3std2io5Write9write_fmt17h9ce3f3087b088578E, symObjAddr: 0x91EFC, symBinAddr: 0x91294, symSize: 0xEC }
  - { offsetInCU: 0x1E251, offset: 0x7D3ED, size: 0x8, addend: 0x0, symName: __ZN3std2io5Write9write_fmt17h9ce3f3087b088578E, symObjAddr: 0x91EFC, symBinAddr: 0x91294, symSize: 0xEC }
  - { offsetInCU: 0x1E26B, offset: 0x7D407, size: 0x8, addend: 0x0, symName: __ZN3std2io5Write9write_fmt17h9ce3f3087b088578E, symObjAddr: 0x91EFC, symBinAddr: 0x91294, symSize: 0xEC }
  - { offsetInCU: 0x1E284, offset: 0x7D420, size: 0x8, addend: 0x0, symName: __ZN3std2io5Write9write_fmt17h9ce3f3087b088578E, symObjAddr: 0x91EFC, symBinAddr: 0x91294, symSize: 0xEC }
  - { offsetInCU: 0x1E29D, offset: 0x7D439, size: 0x8, addend: 0x0, symName: __ZN3std2io5Write9write_fmt17h9ce3f3087b088578E, symObjAddr: 0x91EFC, symBinAddr: 0x91294, symSize: 0xEC }
  - { offsetInCU: 0x1E2B0, offset: 0x7D44C, size: 0x8, addend: 0x0, symName: '__ZN4core3ptr101drop_in_place$LT$alloc..sync..Arc$LT$std..sync..mutex..Mutex$LT$alloc..vec..Vec$LT$u8$GT$$GT$$GT$$GT$17h960733d3d28a8891E', symObjAddr: 0x91FE8, symBinAddr: 0x91380, symSize: 0x28 }
  - { offsetInCU: 0x1E2B8, offset: 0x7D454, size: 0x8, addend: 0x0, symName: '__ZN80_$LT$std..io..Write..write_fmt..Adapter$LT$T$GT$$u20$as$u20$core..fmt..Write$GT$9write_str17he3db7cc307a7a833E', symObjAddr: 0x92010, symBinAddr: 0x913A8, symSize: 0x78 }
  - { offsetInCU: 0x1E2CD, offset: 0x7D469, size: 0x8, addend: 0x0, symName: '__ZN4core3ptr101drop_in_place$LT$alloc..sync..Arc$LT$std..sync..mutex..Mutex$LT$alloc..vec..Vec$LT$u8$GT$$GT$$GT$$GT$17h960733d3d28a8891E', symObjAddr: 0x91FE8, symBinAddr: 0x91380, symSize: 0x28 }
  - { offsetInCU: 0x1E2E7, offset: 0x7D483, size: 0x8, addend: 0x0, symName: '__ZN4core3ptr101drop_in_place$LT$alloc..sync..Arc$LT$std..sync..mutex..Mutex$LT$alloc..vec..Vec$LT$u8$GT$$GT$$GT$$GT$17h960733d3d28a8891E', symObjAddr: 0x91FE8, symBinAddr: 0x91380, symSize: 0x28 }
  - { offsetInCU: 0x1E301, offset: 0x7D49D, size: 0x8, addend: 0x0, symName: '__ZN4core3ptr101drop_in_place$LT$alloc..sync..Arc$LT$std..sync..mutex..Mutex$LT$alloc..vec..Vec$LT$u8$GT$$GT$$GT$$GT$17h960733d3d28a8891E', symObjAddr: 0x91FE8, symBinAddr: 0x91380, symSize: 0x28 }
  - { offsetInCU: 0x1E387, offset: 0x7D523, size: 0x8, addend: 0x0, symName: '__ZN4core3ptr77drop_in_place$LT$std..sys..unix..locks..pthread_condvar..AllocatedCondvar$GT$17had1f5b058710b6e8E', symObjAddr: 0x92578, symBinAddr: 0x91838, symSize: 0x4 }
  - { offsetInCU: 0x1E38F, offset: 0x7D52B, size: 0x8, addend: 0x0, symName: __ZN3std4sync4mpmc7context7Context3new17h5d48f5f70507df4fE, symObjAddr: 0x9257C, symBinAddr: 0xC0A40, symSize: 0x178 }
  - { offsetInCU: 0x1E3A4, offset: 0x7D540, size: 0x8, addend: 0x0, symName: '__ZN4core3ptr77drop_in_place$LT$std..sys..unix..locks..pthread_condvar..AllocatedCondvar$GT$17had1f5b058710b6e8E', symObjAddr: 0x92578, symBinAddr: 0x91838, symSize: 0x4 }
  - { offsetInCU: 0x1E3AC, offset: 0x7D548, size: 0x8, addend: 0x0, symName: __ZN3std4sync4mpmc7context7Context3new17h5d48f5f70507df4fE, symObjAddr: 0x9257C, symBinAddr: 0xC0A40, symSize: 0x178 }
  - { offsetInCU: 0x1E3D9, offset: 0x7D575, size: 0x8, addend: 0x0, symName: '__ZN4core3ptr81drop_in_place$LT$alloc..sync..ArcInner$LT$std..sync..mpmc..context..Inner$GT$$GT$17h91b823d66b987abdE', symObjAddr: 0x926F4, symBinAddr: 0x9183C, symSize: 0x28 }
  - { offsetInCU: 0x1E3E1, offset: 0x7D57D, size: 0x8, addend: 0x0, symName: '__ZN91_$LT$std..sys_common..backtrace.._print..DisplayBacktrace$u20$as$u20$core..fmt..Display$GT$3fmt17h7de9207d3c56fc89E', symObjAddr: 0x9271C, symBinAddr: 0x91864, symSize: 0x2FC }
  - { offsetInCU: 0x1E3FE, offset: 0x7D59A, size: 0x8, addend: 0x0, symName: '__ZN4core3ptr81drop_in_place$LT$alloc..sync..ArcInner$LT$std..sync..mpmc..context..Inner$GT$$GT$17h91b823d66b987abdE', symObjAddr: 0x926F4, symBinAddr: 0x9183C, symSize: 0x28 }
  - { offsetInCU: 0x1E418, offset: 0x7D5B4, size: 0x8, addend: 0x0, symName: '__ZN4core3ptr81drop_in_place$LT$alloc..sync..ArcInner$LT$std..sync..mpmc..context..Inner$GT$$GT$17h91b823d66b987abdE', symObjAddr: 0x926F4, symBinAddr: 0x9183C, symSize: 0x28 }
  - { offsetInCU: 0x1E432, offset: 0x7D5CE, size: 0x8, addend: 0x0, symName: '__ZN4core3ptr81drop_in_place$LT$alloc..sync..ArcInner$LT$std..sync..mpmc..context..Inner$GT$$GT$17h91b823d66b987abdE', symObjAddr: 0x926F4, symBinAddr: 0x9183C, symSize: 0x28 }
  - { offsetInCU: 0x1E44C, offset: 0x7D5E8, size: 0x8, addend: 0x0, symName: '__ZN4core3ptr81drop_in_place$LT$alloc..sync..ArcInner$LT$std..sync..mpmc..context..Inner$GT$$GT$17h91b823d66b987abdE', symObjAddr: 0x926F4, symBinAddr: 0x9183C, symSize: 0x28 }
  - { offsetInCU: 0x1E466, offset: 0x7D602, size: 0x8, addend: 0x0, symName: '__ZN4core3ptr81drop_in_place$LT$alloc..sync..ArcInner$LT$std..sync..mpmc..context..Inner$GT$$GT$17h91b823d66b987abdE', symObjAddr: 0x926F4, symBinAddr: 0x9183C, symSize: 0x28 }
  - { offsetInCU: 0x1E480, offset: 0x7D61C, size: 0x8, addend: 0x0, symName: '__ZN4core3ptr81drop_in_place$LT$alloc..sync..ArcInner$LT$std..sync..mpmc..context..Inner$GT$$GT$17h91b823d66b987abdE', symObjAddr: 0x926F4, symBinAddr: 0x9183C, symSize: 0x28 }
  - { offsetInCU: 0x1E49A, offset: 0x7D636, size: 0x8, addend: 0x0, symName: '__ZN4core3ptr81drop_in_place$LT$alloc..sync..ArcInner$LT$std..sync..mpmc..context..Inner$GT$$GT$17h91b823d66b987abdE', symObjAddr: 0x926F4, symBinAddr: 0x9183C, symSize: 0x28 }
  - { offsetInCU: 0x1E533, offset: 0x7D6CF, size: 0x8, addend: 0x0, symName: '__ZN4core3ptr70drop_in_place$LT$std..panicking..begin_panic_handler..PanicPayload$GT$17hf4e6995e830a8ce1E', symObjAddr: 0x92A18, symBinAddr: 0x91B60, symSize: 0x1C }
  - { offsetInCU: 0x1E53B, offset: 0x7D6D7, size: 0x8, addend: 0x0, symName: '__ZN4core3ops8function6FnOnce40call_once$u7b$$u7b$vtable.shim$u7d$$u7d$17hba6a138ed50d57d6E', symObjAddr: 0x92A34, symBinAddr: 0x91B7C, symSize: 0x4 }
  - { offsetInCU: 0x1E722, offset: 0x7D8BE, size: 0x8, addend: 0x0, symName: '__ZN4core3ptr68drop_in_place$LT$core..option..Option$LT$std..thread..Thread$GT$$GT$17h668d94e44987ed1aE', symObjAddr: 0x95768, symBinAddr: 0x948B0, symSize: 0x2C }
  - { offsetInCU: 0x1E72A, offset: 0x7D8C6, size: 0x8, addend: 0x0, symName: '__ZN3std9panicking12default_hook28_$u7b$$u7b$closure$u7d$$u7d$17hc38d37b7ce8e4427E', symObjAddr: 0x95794, symBinAddr: 0x948DC, symSize: 0x224 }
  - { offsetInCU: 0x2053E, offset: 0x7F6DA, size: 0x8, addend: 0x0, symName: __ZN4core3fmt5Write10write_char17h131258929a0dd663E, symObjAddr: 0x78248, symBinAddr: 0x78FC0, symSize: 0xC8 }
  - { offsetInCU: 0x20546, offset: 0x7F6E2, size: 0x8, addend: 0x0, symName: __ZN4core3fmt5Write9write_fmt17h0aaeed3cf6030e13E, symObjAddr: 0x78310, symBinAddr: 0x79088, symSize: 0x40 }
  - { offsetInCU: 0x2059A, offset: 0x7F736, size: 0x8, addend: 0x0, symName: __ZN4core3fmt5Write9write_fmt17h0aaeed3cf6030e13E, symObjAddr: 0x78310, symBinAddr: 0x79088, symSize: 0x40 }
  - { offsetInCU: 0x205A2, offset: 0x7F73E, size: 0x8, addend: 0x0, symName: '__ZN4core3ptr100drop_in_place$LT$$RF$mut$u20$std..io..Write..write_fmt..Adapter$LT$alloc..vec..Vec$LT$u8$GT$$GT$$GT$17h55e5e1dcaf07a195E', symObjAddr: 0x78350, symBinAddr: 0x790C8, symSize: 0x4 }
  - { offsetInCU: 0x205CE, offset: 0x7F76A, size: 0x8, addend: 0x0, symName: __ZN4core3fmt5Write10write_char17h2f668b23e7bb56a0E, symObjAddr: 0x92088, symBinAddr: 0x91420, symSize: 0x120 }
  - { offsetInCU: 0x205D6, offset: 0x7F772, size: 0x8, addend: 0x0, symName: __ZN4core3fmt5Write9write_fmt17h42d0af625ab9ec21E, symObjAddr: 0x921A8, symBinAddr: 0x91540, symSize: 0x40 }
  - { offsetInCU: 0x20757, offset: 0x7F8F3, size: 0x8, addend: 0x0, symName: __ZN4core3fmt5Write9write_fmt17h42d0af625ab9ec21E, symObjAddr: 0x921A8, symBinAddr: 0x91540, symSize: 0x40 }
  - { offsetInCU: 0x2076B, offset: 0x7F907, size: 0x8, addend: 0x0, symName: __ZN4core3fmt5Write9write_fmt17h42d0af625ab9ec21E, symObjAddr: 0x921A8, symBinAddr: 0x91540, symSize: 0x40 }
  - { offsetInCU: 0x20773, offset: 0x7F90F, size: 0x8, addend: 0x0, symName: '__ZN50_$LT$$RF$mut$u20$W$u20$as$u20$core..fmt..Write$GT$9write_str17h13f1f4da433017c8E', symObjAddr: 0x921E8, symBinAddr: 0x91580, symSize: 0x7C }
  - { offsetInCU: 0x207A6, offset: 0x7F942, size: 0x8, addend: 0x0, symName: '__ZN50_$LT$$RF$mut$u20$W$u20$as$u20$core..fmt..Write$GT$9write_str17h9b1b49e0e71d2a90E', symObjAddr: 0x78354, symBinAddr: 0x790CC, symSize: 0x8 }
  - { offsetInCU: 0x207AE, offset: 0x7F94A, size: 0x8, addend: 0x0, symName: '__ZN50_$LT$$RF$mut$u20$W$u20$as$u20$core..fmt..Write$GT$10write_char17h1f919c1769d38f0bE', symObjAddr: 0x7835C, symBinAddr: 0x790D4, symSize: 0xCC }
  - { offsetInCU: 0x207C6, offset: 0x7F962, size: 0x8, addend: 0x0, symName: '__ZN50_$LT$$RF$mut$u20$W$u20$as$u20$core..fmt..Write$GT$10write_char17h1f919c1769d38f0bE', symObjAddr: 0x7835C, symBinAddr: 0x790D4, symSize: 0xCC }
  - { offsetInCU: 0x207CE, offset: 0x7F96A, size: 0x8, addend: 0x0, symName: '__ZN50_$LT$$RF$mut$u20$W$u20$as$u20$core..fmt..Write$GT$9write_fmt17hd4ff00989b525567E', symObjAddr: 0x78428, symBinAddr: 0x791A0, symSize: 0x44 }
  - { offsetInCU: 0x20843, offset: 0x7F9DF, size: 0x8, addend: 0x0, symName: '__ZN50_$LT$$RF$mut$u20$W$u20$as$u20$core..fmt..Write$GT$9write_fmt17hd4ff00989b525567E', symObjAddr: 0x78428, symBinAddr: 0x791A0, symSize: 0x44 }
  - { offsetInCU: 0x2084B, offset: 0x7F9E7, size: 0x8, addend: 0x0, symName: __ZN3std9panicking11panic_count17LOCAL_PANIC_COUNT7__getit17ha83da79a3e52a3a7E, symObjAddr: 0x7846C, symBinAddr: 0x791E4, symSize: 0xEC }
  - { offsetInCU: 0x2087C, offset: 0x7FA18, size: 0x8, addend: 0x0, symName: '__ZN50_$LT$$RF$mut$u20$W$u20$as$u20$core..fmt..Write$GT$9write_str17h13f1f4da433017c8E', symObjAddr: 0x921E8, symBinAddr: 0x91580, symSize: 0x7C }
  - { offsetInCU: 0x20884, offset: 0x7FA20, size: 0x8, addend: 0x0, symName: '__ZN50_$LT$$RF$mut$u20$W$u20$as$u20$core..fmt..Write$GT$10write_char17he0514badfc198656E', symObjAddr: 0x92264, symBinAddr: 0x915FC, symSize: 0x1C }
  - { offsetInCU: 0x209C2, offset: 0x7FB5E, size: 0x8, addend: 0x0, symName: '__ZN50_$LT$$RF$mut$u20$W$u20$as$u20$core..fmt..Write$GT$10write_char17he0514badfc198656E', symObjAddr: 0x92264, symBinAddr: 0x915FC, symSize: 0x1C }
  - { offsetInCU: 0x209D6, offset: 0x7FB72, size: 0x8, addend: 0x0, symName: '__ZN50_$LT$$RF$mut$u20$W$u20$as$u20$core..fmt..Write$GT$10write_char17he0514badfc198656E', symObjAddr: 0x92264, symBinAddr: 0x915FC, symSize: 0x1C }
  - { offsetInCU: 0x209DE, offset: 0x7FB7A, size: 0x8, addend: 0x0, symName: '__ZN50_$LT$$RF$mut$u20$W$u20$as$u20$core..fmt..Write$GT$9write_fmt17hc2b7c2d8e4580366E', symObjAddr: 0x92280, symBinAddr: 0x91618, symSize: 0x44 }
  - { offsetInCU: 0x209F5, offset: 0x7FB91, size: 0x8, addend: 0x0, symName: '__ZN50_$LT$$RF$mut$u20$W$u20$as$u20$core..fmt..Write$GT$9write_fmt17hc2b7c2d8e4580366E', symObjAddr: 0x92280, symBinAddr: 0x91618, symSize: 0x44 }
  - { offsetInCU: 0x209FD, offset: 0x7FB99, size: 0x8, addend: 0x0, symName: _rust_panic, symObjAddr: 0x922C4, symBinAddr: 0x9165C, symSize: 0xC }
  - { offsetInCU: 0x20A2E, offset: 0x7FBCA, size: 0x8, addend: 0x0, symName: '__ZN50_$LT$$RF$mut$u20$W$u20$as$u20$core..fmt..Write$GT$9write_str17h44aedcc7e7c5a5bcE', symObjAddr: 0x96BA8, symBinAddr: 0x95CF0, symSize: 0x78 }
  - { offsetInCU: 0x20A36, offset: 0x7FBD2, size: 0x8, addend: 0x0, symName: '__ZN50_$LT$$RF$mut$u20$W$u20$as$u20$core..fmt..Write$GT$10write_char17ha4dab667f8f56562E', symObjAddr: 0x96C20, symBinAddr: 0x95D68, symSize: 0x144 }
  - { offsetInCU: 0x20B74, offset: 0x7FD10, size: 0x8, addend: 0x0, symName: '__ZN50_$LT$$RF$mut$u20$W$u20$as$u20$core..fmt..Write$GT$10write_char17ha4dab667f8f56562E', symObjAddr: 0x96C20, symBinAddr: 0x95D68, symSize: 0x144 }
  - { offsetInCU: 0x20B88, offset: 0x7FD24, size: 0x8, addend: 0x0, symName: '__ZN50_$LT$$RF$mut$u20$W$u20$as$u20$core..fmt..Write$GT$10write_char17ha4dab667f8f56562E', symObjAddr: 0x96C20, symBinAddr: 0x95D68, symSize: 0x144 }
  - { offsetInCU: 0x20B90, offset: 0x7FD2C, size: 0x8, addend: 0x0, symName: '__ZN50_$LT$$RF$mut$u20$W$u20$as$u20$core..fmt..Write$GT$9write_fmt17hb01ac48c486ddd0fE', symObjAddr: 0x96D64, symBinAddr: 0x95EAC, symSize: 0x44 }
  - { offsetInCU: 0x20DBF, offset: 0x7FF5B, size: 0x8, addend: 0x0, symName: '__ZN50_$LT$$RF$mut$u20$W$u20$as$u20$core..fmt..Write$GT$9write_fmt17hb01ac48c486ddd0fE', symObjAddr: 0x96D64, symBinAddr: 0x95EAC, symSize: 0x44 }
  - { offsetInCU: 0x20DD3, offset: 0x7FF6F, size: 0x8, addend: 0x0, symName: '__ZN50_$LT$$RF$mut$u20$W$u20$as$u20$core..fmt..Write$GT$9write_fmt17hb01ac48c486ddd0fE', symObjAddr: 0x96D64, symBinAddr: 0x95EAC, symSize: 0x44 }
  - { offsetInCU: 0x20DDB, offset: 0x7FF77, size: 0x8, addend: 0x0, symName: '__ZN36_$LT$T$u20$as$u20$core..any..Any$GT$7type_id17hd35d9d670bb5f4b3E', symObjAddr: 0x96DA8, symBinAddr: 0x95EF0, symSize: 0x14 }
  - { offsetInCU: 0x20E27, offset: 0x7FFC3, size: 0x8, addend: 0x0, symName: '__ZN4core3fmt3num50_$LT$impl$u20$core..fmt..Debug$u20$for$u20$i32$GT$3fmt17h07c0a1e0c12e0e92E.1115', symObjAddr: 0x7980C, symBinAddr: 0x7A4D8, symSize: 0xFC }
  - { offsetInCU: 0x20E2F, offset: 0x7FFCB, size: 0x8, addend: 0x0, symName: '__ZN62_$LT$std..io..error..ErrorKind$u20$as$u20$core..fmt..Debug$GT$3fmt17h771d92d4dd5b847bE', symObjAddr: 0x79908, symBinAddr: 0x7A5D4, symSize: 0x30 }
  - { offsetInCU: 0x20FC5, offset: 0x80161, size: 0x8, addend: 0x0, symName: '__ZN42_$LT$$RF$T$u20$as$u20$core..fmt..Debug$GT$3fmt17hd566ac9650457770E', symObjAddr: 0x78678, symBinAddr: 0x793B0, symSize: 0x100 }
  - { offsetInCU: 0x20FCD, offset: 0x80169, size: 0x8, addend: 0x0, symName: __ZN3std11personality5dwarf2eh20read_encoded_pointer17h31295a8d5f18278dE, symObjAddr: 0x78778, symBinAddr: 0x794B0, symSize: 0x19C }
  - { offsetInCU: 0x21181, offset: 0x8031D, size: 0x8, addend: 0x0, symName: '__ZN42_$LT$$RF$T$u20$as$u20$core..fmt..Debug$GT$3fmt17hcf6fe0208e866a8dE', symObjAddr: 0x797B4, symBinAddr: 0x7A480, symSize: 0x10 }
  - { offsetInCU: 0x21189, offset: 0x80325, size: 0x8, addend: 0x0, symName: '__ZN42_$LT$$RF$T$u20$as$u20$core..fmt..Debug$GT$3fmt17hc1fc9a6a28bb4ed0E', symObjAddr: 0x797C4, symBinAddr: 0x7A490, symSize: 0x34 }
  - { offsetInCU: 0x211AE, offset: 0x8034A, size: 0x8, addend: 0x0, symName: '__ZN42_$LT$$RF$T$u20$as$u20$core..fmt..Debug$GT$3fmt17hc1fc9a6a28bb4ed0E', symObjAddr: 0x797C4, symBinAddr: 0x7A490, symSize: 0x34 }
  - { offsetInCU: 0x211BD, offset: 0x80359, size: 0x8, addend: 0x0, symName: '__ZN42_$LT$$RF$T$u20$as$u20$core..fmt..Debug$GT$3fmt17hc1fc9a6a28bb4ed0E', symObjAddr: 0x797C4, symBinAddr: 0x7A490, symSize: 0x34 }
  - { offsetInCU: 0x211C5, offset: 0x80361, size: 0x8, addend: 0x0, symName: '__ZN58_$LT$alloc..string..String$u20$as$u20$core..fmt..Debug$GT$3fmt17h18c01200b9404934E.1114', symObjAddr: 0x797F8, symBinAddr: 0x7A4C4, symSize: 0x14 }
  - { offsetInCU: 0x211EA, offset: 0x80386, size: 0x8, addend: 0x0, symName: '__ZN58_$LT$alloc..string..String$u20$as$u20$core..fmt..Debug$GT$3fmt17h18c01200b9404934E.1114', symObjAddr: 0x797F8, symBinAddr: 0x7A4C4, symSize: 0x14 }
  - { offsetInCU: 0x21208, offset: 0x803A4, size: 0x8, addend: 0x0, symName: '__ZN58_$LT$alloc..string..String$u20$as$u20$core..fmt..Debug$GT$3fmt17h18c01200b9404934E.1114', symObjAddr: 0x797F8, symBinAddr: 0x7A4C4, symSize: 0x14 }
  - { offsetInCU: 0x2121E, offset: 0x803BA, size: 0x8, addend: 0x0, symName: '__ZN44_$LT$$RF$T$u20$as$u20$core..fmt..Display$GT$3fmt17h1e57fa1372b5b9acE', symObjAddr: 0x7A1B0, symBinAddr: 0x7AE40, symSize: 0x10 }
  - { offsetInCU: 0x21226, offset: 0x803C2, size: 0x8, addend: 0x0, symName: '__ZN80_$LT$std..path..Components$u20$as$u20$core..iter..traits..iterator..Iterator$GT$4next17he187be1fcfafc867E', symObjAddr: 0x7A1C0, symBinAddr: 0x7AE50, symSize: 0x3D0 }
  - { offsetInCU: 0x2124F, offset: 0x803EB, size: 0x8, addend: 0x0, symName: '__ZN80_$LT$std..path..Components$u20$as$u20$core..iter..traits..iterator..Iterator$GT$4next17he187be1fcfafc867E', symObjAddr: 0x7A1C0, symBinAddr: 0x7AE50, symSize: 0x3D0 }
  - { offsetInCU: 0x2125E, offset: 0x803FA, size: 0x8, addend: 0x0, symName: '__ZN44_$LT$$RF$T$u20$as$u20$core..fmt..Display$GT$3fmt17hcbe23964e189f48dE', symObjAddr: 0x95B30, symBinAddr: 0x94C78, symSize: 0x68 }
  - { offsetInCU: 0x21266, offset: 0x80402, size: 0x8, addend: 0x0, symName: __ZN3std10sys_common9backtrace5print17h057d66d5ce8b4eb4E, symObjAddr: 0x95B98, symBinAddr: 0x94CE0, symSize: 0x148 }
  - { offsetInCU: 0x212EE, offset: 0x8048A, size: 0x8, addend: 0x0, symName: '__ZN50_$LT$$BP$mut$u20$T$u20$as$u20$core..fmt..Debug$GT$3fmt17h546cbd433ccc8a2dE', symObjAddr: 0x912A4, symBinAddr: 0x90740, symSize: 0xF0 }
  - { offsetInCU: 0x212F6, offset: 0x80492, size: 0x8, addend: 0x0, symName: '__ZN3std10sys_common9backtrace10_print_fmt28_$u7b$$u7b$closure$u7d$$u7d$17hcf3bf937e3729968E', symObjAddr: 0x91394, symBinAddr: 0x90830, symSize: 0x48 }
  - { offsetInCU: 0x23115, offset: 0x822B1, size: 0x8, addend: 0x0, symName: '__ZN4core5slice4sort12choose_pivot28_$u7b$$u7b$closure$u7d$$u7d$17h0bb9c6e67ce78aecE', symObjAddr: 0x900AC, symBinAddr: 0x8FA68, symSize: 0x170 }
  - { offsetInCU: 0x2311D, offset: 0x822B9, size: 0x8, addend: 0x0, symName: __ZN4core5slice4sort22partial_insertion_sort17heb59904afe3383b2E, symObjAddr: 0x9021C, symBinAddr: 0xC0344, symSize: 0x370 }
  - { offsetInCU: 0x2365A, offset: 0x827F6, size: 0x8, addend: 0x0, symName: __ZN4core5slice4sort7recurse17h04aca4ba42c7256fE, symObjAddr: 0x8D318, symBinAddr: 0x8DB88, symSize: 0xAC8 }
  - { offsetInCU: 0x23662, offset: 0x827FE, size: 0x8, addend: 0x0, symName: __ZN4core5slice4sort7recurse17h6632ceb843c79e21E, symObjAddr: 0x8DDE0, symBinAddr: 0x8E650, symSize: 0x9B8 }
  - { offsetInCU: 0x24AEA, offset: 0x83C86, size: 0x8, addend: 0x0, symName: __ZN4core5slice4sort7recurse17h6632ceb843c79e21E, symObjAddr: 0x8DDE0, symBinAddr: 0x8E650, symSize: 0x9B8 }
  - { offsetInCU: 0x24AF2, offset: 0x83C8E, size: 0x8, addend: 0x0, symName: __ZN4core5slice4sort7recurse17hab79e8bec9feb0b9E, symObjAddr: 0x8E798, symBinAddr: 0x8F008, symSize: 0x9F4 }
  - { offsetInCU: 0x25E08, offset: 0x84FA4, size: 0x8, addend: 0x0, symName: __ZN4core5slice4sort7recurse17hab79e8bec9feb0b9E, symObjAddr: 0x8E798, symBinAddr: 0x8F008, symSize: 0x9F4 }
  - { offsetInCU: 0x25E10, offset: 0x84FAC, size: 0x8, addend: 0x0, symName: '__ZN5alloc7raw_vec19RawVec$LT$T$C$A$GT$7reserve21do_reserve_and_handle17h8b9eb36c24606c2bE', symObjAddr: 0x8F18C, symBinAddr: 0xBF490, symSize: 0xC0 }
  - { offsetInCU: 0x27147, offset: 0x862E3, size: 0x8, addend: 0x0, symName: '__ZN4core5slice4sort8heapsort28_$u7b$$u7b$closure$u7d$$u7d$17hd447a33f93af1e99E', symObjAddr: 0x9058C, symBinAddr: 0x8FBD8, symSize: 0x13C }
  - { offsetInCU: 0x2714F, offset: 0x862EB, size: 0x8, addend: 0x0, symName: __ZN3std3sys6common14small_c_string24run_with_cstr_allocating17h7aa08aebffe8a7bbE, symObjAddr: 0x906C8, symBinAddr: 0xC06B4, symSize: 0x90 }
  - { offsetInCU: 0x2735D, offset: 0x864F9, size: 0x8, addend: 0x0, symName: __ZN4core5slice4sort8heapsort17ha7d9f8ceedcf981eE, symObjAddr: 0x8F290, symBinAddr: 0xBF550, symSize: 0x240 }
  - { offsetInCU: 0x27365, offset: 0x86501, size: 0x8, addend: 0x0, symName: __ZN4core5slice4sort14break_patterns17hf984472a567690d0E, symObjAddr: 0x8F4D0, symBinAddr: 0xBF790, symSize: 0x1A4 }
  - { offsetInCU: 0x275C4, offset: 0x86760, size: 0x8, addend: 0x0, symName: __ZN4core5slice4sort14break_patterns17hf984472a567690d0E, symObjAddr: 0x8F4D0, symBinAddr: 0xBF790, symSize: 0x1A4 }
  - { offsetInCU: 0x275CC, offset: 0x86768, size: 0x8, addend: 0x0, symName: __ZN4core5slice4sort22partial_insertion_sort17h5ff6a50550d26946E, symObjAddr: 0x8F674, symBinAddr: 0xBF934, symSize: 0x2CC }
  - { offsetInCU: 0x2769B, offset: 0x86837, size: 0x8, addend: 0x0, symName: __ZN4core5slice4sort22partial_insertion_sort17h5ff6a50550d26946E, symObjAddr: 0x8F674, symBinAddr: 0xBF934, symSize: 0x2CC }
  - { offsetInCU: 0x276A3, offset: 0x8683F, size: 0x8, addend: 0x0, symName: '__ZN4core3ptr86drop_in_place$LT$core..slice..sort..CopyOnDrop$LT$object..read..ObjectMapEntry$GT$$GT$17h7d0608c0db406970E', symObjAddr: 0x8F940, symBinAddr: 0x8FA40, symSize: 0x14 }
  - { offsetInCU: 0x27A1E, offset: 0x86BBA, size: 0x8, addend: 0x0, symName: __ZN4core5slice4sort8heapsort17h55a2014d81c9e902E, symObjAddr: 0x8F954, symBinAddr: 0xBFC00, symSize: 0x238 }
  - { offsetInCU: 0x27A26, offset: 0x86BC2, size: 0x8, addend: 0x0, symName: __ZN4core5slice4sort14break_patterns17hf144e9686618134dE, symObjAddr: 0x8FB8C, symBinAddr: 0xBFE38, symSize: 0x19C }
  - { offsetInCU: 0x27CA2, offset: 0x86E3E, size: 0x8, addend: 0x0, symName: __ZN4core5slice4sort14break_patterns17hf144e9686618134dE, symObjAddr: 0x8FB8C, symBinAddr: 0xBFE38, symSize: 0x19C }
  - { offsetInCU: 0x27CAA, offset: 0x86E46, size: 0x8, addend: 0x0, symName: __ZN4core5slice4sort22partial_insertion_sort17hbdc7fac71ef1ec66E, symObjAddr: 0x8FD28, symBinAddr: 0xBFFD4, symSize: 0x2A0 }
  - { offsetInCU: 0x27D79, offset: 0x86F15, size: 0x8, addend: 0x0, symName: __ZN4core5slice4sort22partial_insertion_sort17hbdc7fac71ef1ec66E, symObjAddr: 0x8FD28, symBinAddr: 0xBFFD4, symSize: 0x2A0 }
  - { offsetInCU: 0x27D81, offset: 0x86F1D, size: 0x8, addend: 0x0, symName: '__ZN4core3ptr88drop_in_place$LT$core..slice..sort..CopyOnDrop$LT$$LP$$RF$$u5b$u8$u5d$$C$u64$RP$$GT$$GT$17h391ea80a629f0e8eE', symObjAddr: 0x8FFC8, symBinAddr: 0x8FA54, symSize: 0x14 }
  - { offsetInCU: 0x28114, offset: 0x872B0, size: 0x8, addend: 0x0, symName: __ZN4core5slice4sort8heapsort17hc1d311dedadceb9cE, symObjAddr: 0x8FFDC, symBinAddr: 0xC0274, symSize: 0xD0 }
  - { offsetInCU: 0x2811C, offset: 0x872B8, size: 0x8, addend: 0x0, symName: '__ZN4core5slice4sort12choose_pivot28_$u7b$$u7b$closure$u7d$$u7d$17h0bb9c6e67ce78aecE', symObjAddr: 0x900AC, symBinAddr: 0x8FA68, symSize: 0x170 }
  - { offsetInCU: 0x28277, offset: 0x87413, size: 0x8, addend: 0x0, symName: __ZN4core5slice4sort22partial_insertion_sort17heb59904afe3383b2E, symObjAddr: 0x9021C, symBinAddr: 0xC0344, symSize: 0x370 }
  - { offsetInCU: 0x2827F, offset: 0x8741B, size: 0x8, addend: 0x0, symName: '__ZN4core5slice4sort8heapsort28_$u7b$$u7b$closure$u7d$$u7d$17hd447a33f93af1e99E', symObjAddr: 0x9058C, symBinAddr: 0x8FBD8, symSize: 0x13C }
  - { offsetInCU: 0x28E9F, offset: 0x8803B, size: 0x8, addend: 0x0, symName: __ZN4core9panicking13assert_failed17h54031cfe3ac2059fE, symObjAddr: 0x78638, symBinAddr: 0xBEF88, symSize: 0x40 }
  - { offsetInCU: 0x28EA7, offset: 0x88043, size: 0x8, addend: 0x0, symName: '__ZN42_$LT$$RF$T$u20$as$u20$core..fmt..Debug$GT$3fmt17hd566ac9650457770E', symObjAddr: 0x78678, symBinAddr: 0x793B0, symSize: 0x100 }
  - { offsetInCU: 0x28EE1, offset: 0x8807D, size: 0x8, addend: 0x0, symName: '__ZN4core3ops8function6FnOnce40call_once$u7b$$u7b$vtable.shim$u7d$$u7d$17he8e86bf578c233b0E', symObjAddr: 0x78914, symBinAddr: 0x7964C, symSize: 0xC }
  - { offsetInCU: 0x28EE9, offset: 0x88085, size: 0x8, addend: 0x0, symName: '__ZN3std11personality3gcc14find_eh_action28_$u7b$$u7b$closure$u7d$$u7d$17h91ecb79178947faaE', symObjAddr: 0x78920, symBinAddr: 0x79658, symSize: 0xC }
  - { offsetInCU: 0x28F0D, offset: 0x880A9, size: 0x8, addend: 0x0, symName: '__ZN3std11personality3gcc14find_eh_action28_$u7b$$u7b$closure$u7d$$u7d$17h91ecb79178947faaE', symObjAddr: 0x78920, symBinAddr: 0x79658, symSize: 0xC }
  - { offsetInCU: 0x28F26, offset: 0x880C2, size: 0x8, addend: 0x0, symName: '__ZN3std11personality3gcc14find_eh_action28_$u7b$$u7b$closure$u7d$$u7d$17h91ecb79178947faaE', symObjAddr: 0x78920, symBinAddr: 0x79658, symSize: 0xC }
  - { offsetInCU: 0x28F43, offset: 0x880DF, size: 0x8, addend: 0x0, symName: '__ZN4core3ops8function6FnOnce40call_once$u7b$$u7b$vtable.shim$u7d$$u7d$17ha21c028bb3358aacE', symObjAddr: 0x7892C, symBinAddr: 0x79664, symSize: 0xC }
  - { offsetInCU: 0x28F4B, offset: 0x880E7, size: 0x8, addend: 0x0, symName: '__ZN3std11personality3gcc14find_eh_action28_$u7b$$u7b$closure$u7d$$u7d$17hc590dca35827584fE', symObjAddr: 0x78938, symBinAddr: 0x79670, symSize: 0xC }
  - { offsetInCU: 0x28F6F, offset: 0x8810B, size: 0x8, addend: 0x0, symName: '__ZN3std11personality3gcc14find_eh_action28_$u7b$$u7b$closure$u7d$$u7d$17hc590dca35827584fE', symObjAddr: 0x78938, symBinAddr: 0x79670, symSize: 0xC }
  - { offsetInCU: 0x28F88, offset: 0x88124, size: 0x8, addend: 0x0, symName: '__ZN3std11personality3gcc14find_eh_action28_$u7b$$u7b$closure$u7d$$u7d$17hc590dca35827584fE', symObjAddr: 0x78938, symBinAddr: 0x79670, symSize: 0xC }
  - { offsetInCU: 0x28FCF, offset: 0x8816B, size: 0x8, addend: 0x0, symName: '__ZN4core3ops8function6FnOnce40call_once$u7b$$u7b$vtable.shim$u7d$$u7d$17hba6a138ed50d57d6E', symObjAddr: 0x92A34, symBinAddr: 0x91B7C, symSize: 0x4 }
  - { offsetInCU: 0x28FD7, offset: 0x88173, size: 0x8, addend: 0x0, symName: '__ZN3std10sys_common9backtrace10_print_fmt28_$u7b$$u7b$closure$u7d$$u7d$17hceaf68f04be06505E', symObjAddr: 0x92A38, symBinAddr: 0x91B80, symSize: 0x2694 }
  - { offsetInCU: 0x28FF3, offset: 0x8818F, size: 0x8, addend: 0x0, symName: '__ZN4core3ops8function6FnOnce40call_once$u7b$$u7b$vtable.shim$u7d$$u7d$17hba6a138ed50d57d6E', symObjAddr: 0x92A34, symBinAddr: 0x91B7C, symSize: 0x4 }
  - { offsetInCU: 0x28FFB, offset: 0x88197, size: 0x8, addend: 0x0, symName: '__ZN3std10sys_common9backtrace10_print_fmt28_$u7b$$u7b$closure$u7d$$u7d$17hceaf68f04be06505E', symObjAddr: 0x92A38, symBinAddr: 0x91B80, symSize: 0x2694 }
  - { offsetInCU: 0x29017, offset: 0x881B3, size: 0x8, addend: 0x0, symName: '__ZN4core3ops8function6FnOnce40call_once$u7b$$u7b$vtable.shim$u7d$$u7d$17h0a6b6ecc1c2ff116E', symObjAddr: 0x95610, symBinAddr: 0x94758, symSize: 0x84 }
  - { offsetInCU: 0x2901F, offset: 0x881BB, size: 0x8, addend: 0x0, symName: __ZN3std5alloc24default_alloc_error_hook17h79cde74585374cbeE, symObjAddr: 0x95694, symBinAddr: 0x947DC, symSize: 0xD4 }
  - { offsetInCU: 0x2A722, offset: 0x898BE, size: 0x8, addend: 0x0, symName: '__ZN55_$LT$$RF$str$u20$as$u20$core..str..pattern..Pattern$GT$15is_contained_in17h7f91ef1c78ffd9fdE', symObjAddr: 0x95288, symBinAddr: 0x943D0, symSize: 0x388 }
  - { offsetInCU: 0x2A72A, offset: 0x898C6, size: 0x8, addend: 0x0, symName: '__ZN4core3ops8function6FnOnce40call_once$u7b$$u7b$vtable.shim$u7d$$u7d$17h0a6b6ecc1c2ff116E', symObjAddr: 0x95610, symBinAddr: 0x94758, symSize: 0x84 }
  - { offsetInCU: 0x2AC8C, offset: 0x89E28, size: 0x8, addend: 0x0, symName: '__ZN36_$LT$T$u20$as$u20$core..any..Any$GT$7type_id17h81b88bab92c8afbcE', symObjAddr: 0x96B94, symBinAddr: 0x95CDC, symSize: 0x14 }
  - { offsetInCU: 0x2AC94, offset: 0x89E30, size: 0x8, addend: 0x0, symName: '__ZN50_$LT$$RF$mut$u20$W$u20$as$u20$core..fmt..Write$GT$9write_str17h44aedcc7e7c5a5bcE', symObjAddr: 0x96BA8, symBinAddr: 0x95CF0, symSize: 0x78 }
  - { offsetInCU: 0x2ACAC, offset: 0x89E48, size: 0x8, addend: 0x0, symName: '__ZN36_$LT$T$u20$as$u20$core..any..Any$GT$7type_id17hd35d9d670bb5f4b3E', symObjAddr: 0x96DA8, symBinAddr: 0x95EF0, symSize: 0x14 }
  - { offsetInCU: 0x2ACB4, offset: 0x89E50, size: 0x8, addend: 0x0, symName: '__ZN93_$LT$std..panicking..begin_panic_handler..StrPanicPayload$u20$as$u20$core..panic..BoxMeUp$GT$8take_box17h2ce84ced2235cf4fE', symObjAddr: 0x96DBC, symBinAddr: 0x95F04, symSize: 0x40 }
  - { offsetInCU: 0x2ACCC, offset: 0x89E68, size: 0x8, addend: 0x0, symName: '__ZN36_$LT$T$u20$as$u20$core..any..Any$GT$7type_id17h659f1bacaadaf065E', symObjAddr: 0x96E08, symBinAddr: 0x95F50, symSize: 0x14 }
  - { offsetInCU: 0x2ACD4, offset: 0x89E70, size: 0x8, addend: 0x0, symName: '__ZN63_$LT$std..sync..mpsc..RecvError$u20$as$u20$core..fmt..Debug$GT$3fmt17h31ac55eb3311e17bE', symObjAddr: 0x96E1C, symBinAddr: 0x95F64, symSize: 0x18 }
  - { offsetInCU: 0x2AD96, offset: 0x89F32, size: 0x8, addend: 0x0, symName: __ZN5alloc5alloc8box_free17h151243767fe8fc14E, symObjAddr: 0x7807C, symBinAddr: 0x78DF4, symSize: 0xC }
  - { offsetInCU: 0x2AD9E, offset: 0x89F3A, size: 0x8, addend: 0x0, symName: '__ZN4core3ptr88drop_in_place$LT$std..io..Write..write_fmt..Adapter$LT$alloc..vec..Vec$LT$u8$GT$$GT$$GT$17h0b445cfe656e9355E', symObjAddr: 0x78088, symBinAddr: 0x78E00, symSize: 0x8C }
  - { offsetInCU: 0x2ADBB, offset: 0x89F57, size: 0x8, addend: 0x0, symName: __ZN5alloc5alloc8box_free17h151243767fe8fc14E, symObjAddr: 0x7807C, symBinAddr: 0x78DF4, symSize: 0xC }
  - { offsetInCU: 0x2B033, offset: 0x8A1CF, size: 0x8, addend: 0x0, symName: __ZN5alloc5alloc8box_free17hebbe23513a408f6aE, symObjAddr: 0x8748C, symBinAddr: 0x87E5C, symSize: 0xC }
  - { offsetInCU: 0x2B03B, offset: 0x8A1D7, size: 0x8, addend: 0x0, symName: '__ZN4core3ptr123drop_in_place$LT$addr2line..ResUnit$LT$gimli..read..endian_slice..EndianSlice$LT$gimli..endianity..LittleEndian$GT$$GT$$GT$17hb92f5f904821fc27E', symObjAddr: 0x87498, symBinAddr: 0x87E68, symSize: 0xBC }
  - { offsetInCU: 0x2B050, offset: 0x8A1EC, size: 0x8, addend: 0x0, symName: __ZN5alloc5alloc8box_free17hebbe23513a408f6aE, symObjAddr: 0x8748C, symBinAddr: 0x87E5C, symSize: 0xC }
  - { offsetInCU: 0x2B137, offset: 0x8A2D3, size: 0x8, addend: 0x0, symName: __ZN5alloc5alloc8box_free17h22c467aa496fa3deE, symObjAddr: 0x9735C, symBinAddr: 0x961F8, symSize: 0x4 }
  - { offsetInCU: 0x2B13F, offset: 0x8A2DB, size: 0x8, addend: 0x0, symName: __ZN3std3sys4unix6thread6Thread3new12thread_start17hffff04f13987e13bE, symObjAddr: 0x97360, symBinAddr: 0x961FC, symSize: 0x68 }
  - { offsetInCU: 0x2B154, offset: 0x8A2F0, size: 0x8, addend: 0x0, symName: __ZN5alloc5alloc8box_free17h22c467aa496fa3deE, symObjAddr: 0x9735C, symBinAddr: 0x961F8, symSize: 0x4 }
  - { offsetInCU: 0x2B15C, offset: 0x8A2F8, size: 0x8, addend: 0x0, symName: __ZN3std3sys4unix6thread6Thread3new12thread_start17hffff04f13987e13bE, symObjAddr: 0x97360, symBinAddr: 0x961FC, symSize: 0x68 }
  - { offsetInCU: 0x2B16E, offset: 0x8A30A, size: 0x8, addend: 0x0, symName: __ZN5alloc5alloc8box_free17h22c467aa496fa3deE, symObjAddr: 0x9735C, symBinAddr: 0x961F8, symSize: 0x4 }
  - { offsetInCU: 0x2B176, offset: 0x8A312, size: 0x8, addend: 0x0, symName: __ZN3std3sys4unix6thread6Thread3new12thread_start17hffff04f13987e13bE, symObjAddr: 0x97360, symBinAddr: 0x961FC, symSize: 0x68 }
  - { offsetInCU: 0x2B187, offset: 0x8A323, size: 0x8, addend: 0x0, symName: __ZN5alloc5alloc8box_free17h22c467aa496fa3deE, symObjAddr: 0x9735C, symBinAddr: 0x961F8, symSize: 0x4 }
  - { offsetInCU: 0x2B18F, offset: 0x8A32B, size: 0x8, addend: 0x0, symName: __ZN3std3sys4unix6thread6Thread3new12thread_start17hffff04f13987e13bE, symObjAddr: 0x97360, symBinAddr: 0x961FC, symSize: 0x68 }
  - { offsetInCU: 0x2B1A0, offset: 0x8A33C, size: 0x8, addend: 0x0, symName: __ZN5alloc5alloc8box_free17h22c467aa496fa3deE, symObjAddr: 0x9735C, symBinAddr: 0x961F8, symSize: 0x4 }
  - { offsetInCU: 0x2B1A8, offset: 0x8A344, size: 0x8, addend: 0x0, symName: __ZN3std3sys4unix6thread6Thread3new12thread_start17hffff04f13987e13bE, symObjAddr: 0x97360, symBinAddr: 0x961FC, symSize: 0x68 }
  - { offsetInCU: 0x2B3FB, offset: 0x8A597, size: 0x8, addend: 0x0, symName: '__ZN5alloc4sync12Arc$LT$T$GT$9drop_slow17h831aeecc4e9da44dE', symObjAddr: 0x789E4, symBinAddr: 0x7971C, symSize: 0x74 }
  - { offsetInCU: 0x2B403, offset: 0x8A59F, size: 0x8, addend: 0x0, symName: '__ZN4core3ptr168drop_in_place$LT$alloc..boxed..Box$LT$std..thread..local..os..Value$LT$core..cell..Cell$LT$core..option..Option$LT$std..sync..mpmc..context..Context$GT$$GT$$GT$$GT$$GT$17h87f2eaef0daadf38E', symObjAddr: 0x78A58, symBinAddr: 0x79790, symSize: 0x54 }
  - { offsetInCU: 0x2B64A, offset: 0x8A7E6, size: 0x8, addend: 0x0, symName: '__ZN5alloc4sync12Arc$LT$T$GT$9drop_slow17hd82c010b1c5f3578E', symObjAddr: 0x78AAC, symBinAddr: 0x797E4, symSize: 0x74 }
  - { offsetInCU: 0x2B652, offset: 0x8A7EE, size: 0x8, addend: 0x0, symName: __ZN3std6thread5local2os13destroy_value17h6763b854a3a3cb9dE, symObjAddr: 0x78B20, symBinAddr: 0x79858, symSize: 0x64 }
  - { offsetInCU: 0x2B8E7, offset: 0x8AA83, size: 0x8, addend: 0x0, symName: '__ZN5alloc4sync12Arc$LT$T$GT$9drop_slow17hd5dd474e53f63070E', symObjAddr: 0x799E4, symBinAddr: 0x7A674, symSize: 0x2C }
  - { offsetInCU: 0x2B8EF, offset: 0x8AA8B, size: 0x8, addend: 0x0, symName: __ZN3std6thread6scoped9ScopeData29decrement_num_running_threads17h1f885f8d13ed34c4E, symObjAddr: 0x79A10, symBinAddr: 0x7A6A0, symSize: 0x4C }
  - { offsetInCU: 0x2B90C, offset: 0x8AAA8, size: 0x8, addend: 0x0, symName: '__ZN5alloc4sync12Arc$LT$T$GT$9drop_slow17hd5dd474e53f63070E', symObjAddr: 0x799E4, symBinAddr: 0x7A674, symSize: 0x2C }
  - { offsetInCU: 0x2B926, offset: 0x8AAC2, size: 0x8, addend: 0x0, symName: '__ZN5alloc4sync12Arc$LT$T$GT$9drop_slow17hd5dd474e53f63070E', symObjAddr: 0x799E4, symBinAddr: 0x7A674, symSize: 0x2C }
  - { offsetInCU: 0x2B940, offset: 0x8AADC, size: 0x8, addend: 0x0, symName: '__ZN5alloc4sync12Arc$LT$T$GT$9drop_slow17hd5dd474e53f63070E', symObjAddr: 0x799E4, symBinAddr: 0x7A674, symSize: 0x2C }
  - { offsetInCU: 0x2BA59, offset: 0x8ABF5, size: 0x8, addend: 0x0, symName: '__ZN5alloc4sync12Arc$LT$T$GT$9drop_slow17hc21a7bfa2387b952E', symObjAddr: 0x7D384, symBinAddr: 0x7DE34, symSize: 0x7C }
  - { offsetInCU: 0x2BA61, offset: 0x8ABFD, size: 0x8, addend: 0x0, symName: '__ZN4core3ptr38drop_in_place$LT$std..fs..DirEntry$GT$17h5f7115a8597ce001E', symObjAddr: 0x7D400, symBinAddr: 0x7DEB0, symSize: 0x28 }
  - { offsetInCU: 0x2BD3C, offset: 0x8AED8, size: 0x8, addend: 0x0, symName: '__ZN5alloc4sync12Arc$LT$T$GT$9drop_slow17hb39082e040a0d391E', symObjAddr: 0x875D4, symBinAddr: 0x87FA4, symSize: 0x78 }
  - { offsetInCU: 0x2BD44, offset: 0x8AEE0, size: 0x8, addend: 0x0, symName: '__ZN4core3ptr55drop_in_place$LT$gimli..read..abbrev..Abbreviations$GT$17h7444570473eb8f86E', symObjAddr: 0x8764C, symBinAddr: 0x8801C, symSize: 0x10C }
  - { offsetInCU: 0x2BF91, offset: 0x8B12D, size: 0x8, addend: 0x0, symName: '__ZN5alloc4sync12Arc$LT$T$GT$9drop_slow17hdd618400c1bfcb7cE', symObjAddr: 0x91D44, symBinAddr: 0x910DC, symSize: 0x98 }
  - { offsetInCU: 0x2BF99, offset: 0x8B135, size: 0x8, addend: 0x0, symName: '__ZN4core3ptr84drop_in_place$LT$std..io..stdio..set_output_capture..$u7b$$u7b$closure$u7d$$u7d$$GT$17h8ee75496711b3edaE', symObjAddr: 0x91DDC, symBinAddr: 0x91174, symSize: 0x2C }
  - { offsetInCU: 0x2C98B, offset: 0x8BB27, size: 0x8, addend: 0x0, symName: '__ZN5alloc7raw_vec19RawVec$LT$T$C$A$GT$16reserve_for_push17h46ab89a77c718d72E', symObjAddr: 0x82788, symBinAddr: 0x83158, symSize: 0xC0 }
  - { offsetInCU: 0x2C993, offset: 0x8BB2F, size: 0x8, addend: 0x0, symName: '__ZN4core3ptr275drop_in_place$LT$gimli..read..line..LineRows$LT$gimli..read..endian_slice..EndianSlice$LT$gimli..endianity..LittleEndian$GT$$C$gimli..read..line..IncompleteLineProgram$LT$gimli..read..endian_slice..EndianSlice$LT$gimli..endianity..LittleEndian$GT$$C$usize$GT$$C$usize$GT$$GT$17ha8b888e987077ddaE', symObjAddr: 0x82848, symBinAddr: 0x83218, symSize: 0x64 }
  - { offsetInCU: 0x2CB6C, offset: 0x8BD08, size: 0x8, addend: 0x0, symName: '__ZN5alloc7raw_vec19RawVec$LT$T$C$A$GT$16reserve_for_push17h0783e60114b7f816E', symObjAddr: 0x82C2C, symBinAddr: 0x835FC, symSize: 0xD4 }
  - { offsetInCU: 0x2CB74, offset: 0x8BD10, size: 0x8, addend: 0x0, symName: '__ZN4core3ptr65drop_in_place$LT$alloc..vec..Vec$LT$alloc..string..String$GT$$GT$17h0bcfadfdb1e117f9E', symObjAddr: 0x82D00, symBinAddr: 0x836D0, symSize: 0x7C }
  - { offsetInCU: 0x2CD03, offset: 0x8BE9F, size: 0x8, addend: 0x0, symName: '__ZN5alloc7raw_vec19RawVec$LT$T$C$A$GT$16reserve_for_push17h5142afaeed69c480E', symObjAddr: 0x82E70, symBinAddr: 0x83840, symSize: 0xC0 }
  - { offsetInCU: 0x2CD0B, offset: 0x8BEA7, size: 0x8, addend: 0x0, symName: '__ZN4core3ptr44drop_in_place$LT$addr2line..LineSequence$GT$17hec7f6aa9810071c9E', symObjAddr: 0x82F30, symBinAddr: 0x83900, symSize: 0x4 }
  - { offsetInCU: 0x2CED6, offset: 0x8C072, size: 0x8, addend: 0x0, symName: '__ZN5alloc7raw_vec19RawVec$LT$T$C$A$GT$16reserve_for_push17h16667319d5878141E', symObjAddr: 0x850B0, symBinAddr: 0x85A80, symSize: 0xD4 }
  - { offsetInCU: 0x2CEDE, offset: 0x8C07A, size: 0x8, addend: 0x0, symName: '__ZN4core3ptr250drop_in_place$LT$$LP$gimli..read..UnitOffset$C$addr2line..lazy..LazyCell$LT$core..result..Result$LT$addr2line..function..Function$LT$gimli..read..endian_slice..EndianSlice$LT$gimli..endianity..LittleEndian$GT$$GT$$C$gimli..read..Error$GT$$GT$$RP$$GT$17h3a8da7b935396d33E', symObjAddr: 0x85184, symBinAddr: 0x85B54, symSize: 0x50 }
  - { offsetInCU: 0x2D0C1, offset: 0x8C25D, size: 0x8, addend: 0x0, symName: '__ZN5alloc7raw_vec19RawVec$LT$T$C$A$GT$16reserve_for_push17h5cdc75dd7963ea9dE', symObjAddr: 0x8663C, symBinAddr: 0x8700C, symSize: 0xC0 }
  - { offsetInCU: 0x2D0C9, offset: 0x8C265, size: 0x8, addend: 0x0, symName: '__ZN4core3ptr168drop_in_place$LT$alloc..vec..Vec$LT$$RF$addr2line..function..InlinedFunction$LT$gimli..read..endian_slice..EndianSlice$LT$gimli..endianity..LittleEndian$GT$$GT$$GT$$GT$17hef3925752c764ab0E', symObjAddr: 0x866FC, symBinAddr: 0x870CC, symSize: 0x10 }
  - { offsetInCU: 0x2D294, offset: 0x8C430, size: 0x8, addend: 0x0, symName: '__ZN5alloc7raw_vec19RawVec$LT$T$C$A$GT$16reserve_for_push17h4a71a84905079355E', symObjAddr: 0x86ADC, symBinAddr: 0x874AC, symSize: 0xD4 }
  - { offsetInCU: 0x2D29C, offset: 0x8C438, size: 0x8, addend: 0x0, symName: '__ZN5gimli4read4unit32AttributeValue$LT$R$C$Offset$GT$8u8_value17h99de3ec27f7c0962E', symObjAddr: 0x86BB0, symBinAddr: 0x87580, symSize: 0xB8 }
  - { offsetInCU: 0x2D4EF, offset: 0x8C68B, size: 0x8, addend: 0x0, symName: '__ZN5alloc7raw_vec19RawVec$LT$T$C$A$GT$16reserve_for_push17h30eee68f360b2935E', symObjAddr: 0x8CE64, symBinAddr: 0x8D7A8, symSize: 0xD4 }
  - { offsetInCU: 0x2D4F7, offset: 0x8C693, size: 0x8, addend: 0x0, symName: '__ZN4core3ptr137drop_in_place$LT$gimli..read..dwarf..Unit$LT$gimli..read..endian_slice..EndianSlice$LT$gimli..endianity..LittleEndian$GT$$C$usize$GT$$GT$17h545e11a40fa0b018E', symObjAddr: 0x8CF38, symBinAddr: 0x8D87C, symSize: 0x8C }
  - { offsetInCU: 0x2D6C2, offset: 0x8C85E, size: 0x8, addend: 0x0, symName: '__ZN5alloc7raw_vec19RawVec$LT$T$C$A$GT$16reserve_for_push17h3e4edcb03bc157f0E', symObjAddr: 0x8D070, symBinAddr: 0x8D9B4, symSize: 0xC0 }
  - { offsetInCU: 0x2D6CA, offset: 0x8C866, size: 0x8, addend: 0x0, symName: '__ZN4core3ptr144drop_in_place$LT$alloc..vec..Vec$LT$core..option..Option$LT$core..option..Option$LT$std..backtrace_rs..symbolize..gimli..Mapping$GT$$GT$$GT$$GT$17h70164f22442888b8E', symObjAddr: 0x8D130, symBinAddr: 0x8DA74, symSize: 0xBC }
  - { offsetInCU: 0x2D8C1, offset: 0x8CA5D, size: 0x8, addend: 0x0, symName: '__ZN5alloc7raw_vec19RawVec$LT$T$C$A$GT$16reserve_for_push17h918af27258095581E', symObjAddr: 0x923E4, symBinAddr: 0x9177C, symSize: 0xBC }
  - { offsetInCU: 0x2D8C9, offset: 0x8CA65, size: 0x8, addend: 0x0, symName: __ZN3std7process5abort17hbbdefb91f0891848E, symObjAddr: 0x924A0, symBinAddr: 0xC0968, symSize: 0xC }
  - { offsetInCU: 0x2DD03, offset: 0x8CE9F, size: 0x8, addend: 0x0, symName: '__ZN5alloc7raw_vec19RawVec$LT$T$C$A$GT$7reserve21do_reserve_and_handle17h06b4dd5c5b1e415aE', symObjAddr: 0x7AD10, symBinAddr: 0xBF070, symSize: 0xBC }
  - { offsetInCU: 0x2DD0B, offset: 0x8CEA7, size: 0x8, addend: 0x0, symName: __ZN5alloc7raw_vec11finish_grow17hce03cf7f8e9711bbE, symObjAddr: 0x7ADCC, symBinAddr: 0x7B9A0, symSize: 0x154 }
  - { offsetInCU: 0x2DEB6, offset: 0x8D052, size: 0x8, addend: 0x0, symName: '__ZN5alloc7raw_vec19RawVec$LT$T$C$A$GT$7reserve21do_reserve_and_handle17h354926ce5c387596E', symObjAddr: 0x7B068, symBinAddr: 0xBF17C, symSize: 0xD4 }
  - { offsetInCU: 0x2DEBE, offset: 0x8D05A, size: 0x8, addend: 0x0, symName: '__ZN4core3ptr95drop_in_place$LT$core..option..IntoIter$LT$std..backtrace_rs..symbolize..gimli..Library$GT$$GT$17h662e7a502df1a2abE', symObjAddr: 0x7B13C, symBinAddr: 0x7BBEC, symSize: 0x48 }
  - { offsetInCU: 0x2E069, offset: 0x8D205, size: 0x8, addend: 0x0, symName: '__ZN5alloc7raw_vec19RawVec$LT$T$C$A$GT$7reserve21do_reserve_and_handle17hbaa9bca1b2e760d6E', symObjAddr: 0x7D768, symBinAddr: 0xBF250, symSize: 0xE0 }
  - { offsetInCU: 0x2E071, offset: 0x8D20D, size: 0x8, addend: 0x0, symName: '__ZN4core3ptr81drop_in_place$LT$$LP$usize$C$std..backtrace_rs..symbolize..gimli..Mapping$RP$$GT$17hdbd4ccf8b4c6099dE', symObjAddr: 0x7D848, symBinAddr: 0x7E218, symSize: 0x8 }
  - { offsetInCU: 0x2E1E1, offset: 0x8D37D, size: 0x8, addend: 0x0, symName: '__ZN5alloc7raw_vec19RawVec$LT$T$C$A$GT$7reserve21do_reserve_and_handle17h5a05cce8e5d8d921E', symObjAddr: 0x8D244, symBinAddr: 0xBF3BC, symSize: 0xD4 }
  - { offsetInCU: 0x2E1E9, offset: 0x8D385, size: 0x8, addend: 0x0, symName: __ZN4core5slice4sort7recurse17h04aca4ba42c7256fE, symObjAddr: 0x8D318, symBinAddr: 0x8DB88, symSize: 0xAC8 }
  - { offsetInCU: 0x2E359, offset: 0x8D4F5, size: 0x8, addend: 0x0, symName: '__ZN5alloc7raw_vec19RawVec$LT$T$C$A$GT$7reserve21do_reserve_and_handle17h8b9eb36c24606c2bE', symObjAddr: 0x8F18C, symBinAddr: 0xBF490, symSize: 0xC0 }
  - { offsetInCU: 0x2E361, offset: 0x8D4FD, size: 0x8, addend: 0x0, symName: '__ZN4core3ptr44drop_in_place$LT$object..read..ObjectMap$GT$17hc74c698036190a9fE', symObjAddr: 0x8F24C, symBinAddr: 0x8F9FC, symSize: 0x44 }
  - { offsetInCU: 0x2E50E, offset: 0x8D6AA, size: 0x8, addend: 0x0, symName: __ZN5alloc7raw_vec11finish_grow17hce03cf7f8e9711bbE, symObjAddr: 0x7ADCC, symBinAddr: 0x7B9A0, symSize: 0x154 }
  - { offsetInCU: 0x2E516, offset: 0x8D6B2, size: 0x8, addend: 0x0, symName: __ZN3std9panicking11panic_count17is_zero_slow_path17hd79a5a41d38cfe1aE, symObjAddr: 0x7AF20, symBinAddr: 0xBF12C, symSize: 0x50 }
  - { offsetInCU: 0x2E7C0, offset: 0x8D95C, size: 0x8, addend: 0x0, symName: '__ZN58_$LT$alloc..string..String$u20$as$u20$core..fmt..Debug$GT$3fmt17h18c01200b9404934E.1114', symObjAddr: 0x797F8, symBinAddr: 0x7A4C4, symSize: 0x14 }
  - { offsetInCU: 0x2E7C8, offset: 0x8D964, size: 0x8, addend: 0x0, symName: '__ZN4core3fmt3num50_$LT$impl$u20$core..fmt..Debug$u20$for$u20$i32$GT$3fmt17h07c0a1e0c12e0e92E.1115', symObjAddr: 0x7980C, symBinAddr: 0x7A4D8, symSize: 0xFC }
  - { offsetInCU: 0x2E7E5, offset: 0x8D981, size: 0x8, addend: 0x0, symName: '__ZN58_$LT$alloc..string..String$u20$as$u20$core..fmt..Debug$GT$3fmt17h18c01200b9404934E.1114', symObjAddr: 0x797F8, symBinAddr: 0x7A4C4, symSize: 0x14 }
  - { offsetInCU: 0x2E889, offset: 0x8DA25, size: 0x8, addend: 0x0, symName: '__ZN60_$LT$alloc..string..String$u20$as$u20$core..fmt..Display$GT$3fmt17h39ea319a996c860cE.1148', symObjAddr: 0x91928, symBinAddr: 0x90DC4, symSize: 0x10 }
  - { offsetInCU: 0x2E891, offset: 0x8DA2D, size: 0x8, addend: 0x0, symName: __ZN3std3sys6common14small_c_string24run_with_cstr_allocating17hdb46a4abb7d73f60E, symObjAddr: 0x91938, symBinAddr: 0xC0864, symSize: 0x104 }
  - { offsetInCU: 0x2E8D4, offset: 0x8DA70, size: 0x8, addend: 0x0, symName: __ZN3std3sys6common14small_c_string24run_with_cstr_allocating17hdb46a4abb7d73f60E, symObjAddr: 0x91938, symBinAddr: 0xC0864, symSize: 0x104 }
  - { offsetInCU: 0x2F6D0, offset: 0x8E86C, size: 0x8, addend: 0x0, symName: '__ZN5alloc11collections5btree3map25IntoIter$LT$K$C$V$C$A$GT$10dying_next17hdd1ab3686764354aE', symObjAddr: 0x877F0, symBinAddr: 0x881C0, symSize: 0x18C }
  - { offsetInCU: 0x2F6D8, offset: 0x8E874, size: 0x8, addend: 0x0, symName: '__ZN65_$LT$std..sys..unix..fs..Dir$u20$as$u20$core..ops..drop..Drop$GT$4drop17hd11880211b9cefd2E', symObjAddr: 0x8797C, symBinAddr: 0x8834C, symSize: 0xA4 }
  - { offsetInCU: 0x30201, offset: 0x8F39D, size: 0x8, addend: 0x0, symName: __ZN6object4read7archive13ArchiveMember5parse17h50ca5e8867bb5ecaE, symObjAddr: 0x7FF38, symBinAddr: 0x80908, symSize: 0x3C8 }
  - { offsetInCU: 0x30209, offset: 0x8F3A5, size: 0x8, addend: 0x0, symName: __ZN6object4read7archive23parse_bsd_extended_name17h9a2912ffb920e2acE, symObjAddr: 0x80300, symBinAddr: 0x80CD0, symSize: 0x2F4 }
  - { offsetInCU: 0x305F3, offset: 0x8F78F, size: 0x8, addend: 0x0, symName: __ZN6object4read7archive23parse_bsd_extended_name17h9a2912ffb920e2acE, symObjAddr: 0x80300, symBinAddr: 0x80CD0, symSize: 0x2F4 }
  - { offsetInCU: 0x305FB, offset: 0x8F797, size: 0x8, addend: 0x0, symName: '__ZN9addr2line16ResUnit$LT$R$GT$11parse_lines17h19d290c198263533E', symObjAddr: 0x805F4, symBinAddr: 0x80FC4, symSize: 0x1EDC }
  - { offsetInCU: 0x30A90, offset: 0x8FC2C, size: 0x8, addend: 0x0, symName: '__ZN5gimli4read5dwarf14Dwarf$LT$R$GT$11attr_string17hf43894bd39b95e83E', symObjAddr: 0x82FFC, symBinAddr: 0x839CC, symSize: 0x240 }
  - { offsetInCU: 0x30A98, offset: 0x8FC34, size: 0x8, addend: 0x0, symName: '__ZN5gimli4read8rnglists20RngListIter$LT$R$GT$4next17h36ca3af345ea5da5E', symObjAddr: 0x8323C, symBinAddr: 0x83C0C, symSize: 0x994 }
  - { offsetInCU: 0x3157B, offset: 0x90717, size: 0x8, addend: 0x0, symName: '__ZN90_$LT$gimli..read..unit..AttributeValue$LT$R$C$Offset$GT$$u20$as$u20$core..clone..Clone$GT$5clone17h2f8c9c67b5c7b846E', symObjAddr: 0x824F0, symBinAddr: 0x82EC0, symSize: 0x68 }
  - { offsetInCU: 0x31583, offset: 0x9071F, size: 0x8, addend: 0x0, symName: __ZN5gimli4read6reader6Reader12read_sleb12817h715e271842e9ac8fE, symObjAddr: 0x82558, symBinAddr: 0x82F28, symSize: 0x230 }
  - { offsetInCU: 0x315F4, offset: 0x90790, size: 0x8, addend: 0x0, symName: __ZN5gimli4read4unit15parse_attribute17hd71b57678f7d8c75E, symObjAddr: 0x83BD0, symBinAddr: 0x845A0, symSize: 0x1120 }
  - { offsetInCU: 0x315FC, offset: 0x90798, size: 0x8, addend: 0x0, symName: '__ZN5gimli4read4unit18Attribute$LT$R$GT$5value17hdb1ba1b73f7b3cbaE', symObjAddr: 0x84CF0, symBinAddr: 0x856C0, symSize: 0x3C0 }
  - { offsetInCU: 0x3414A, offset: 0x932E6, size: 0x8, addend: 0x0, symName: '__ZN5gimli4read4unit18Attribute$LT$R$GT$5value17hdb1ba1b73f7b3cbaE', symObjAddr: 0x84CF0, symBinAddr: 0x856C0, symSize: 0x3C0 }
  - { offsetInCU: 0x34152, offset: 0x932EE, size: 0x8, addend: 0x0, symName: '__ZN5alloc7raw_vec19RawVec$LT$T$C$A$GT$16reserve_for_push17h16667319d5878141E', symObjAddr: 0x850B0, symBinAddr: 0x85A80, symSize: 0xD4 }
  - { offsetInCU: 0x343CE, offset: 0x9356A, size: 0x8, addend: 0x0, symName: '__ZN5gimli4read4unit32AttributeValue$LT$R$C$Offset$GT$8u8_value17h99de3ec27f7c0962E', symObjAddr: 0x86BB0, symBinAddr: 0x87580, symSize: 0xB8 }
  - { offsetInCU: 0x343D6, offset: 0x93572, size: 0x8, addend: 0x0, symName: '__ZN5gimli4read4unit32AttributeValue$LT$R$C$Offset$GT$11udata_value17h29ba5d0e2e39c74eE', symObjAddr: 0x86C68, symBinAddr: 0x87638, symSize: 0x70 }
  - { offsetInCU: 0x343FE, offset: 0x9359A, size: 0x8, addend: 0x0, symName: '__ZN5gimli4read4unit32AttributeValue$LT$R$C$Offset$GT$11udata_value17h29ba5d0e2e39c74eE', symObjAddr: 0x86C68, symBinAddr: 0x87638, symSize: 0x70 }
  - { offsetInCU: 0x34406, offset: 0x935A2, size: 0x8, addend: 0x0, symName: '__ZN5gimli4read4unit32AttributeValue$LT$R$C$Offset$GT$9u16_value17h9b8a8140366582a9E', symObjAddr: 0x86CD8, symBinAddr: 0x876A8, symSize: 0xB8 }
  - { offsetInCU: 0x34417, offset: 0x935B3, size: 0x8, addend: 0x0, symName: '__ZN5gimli4read4unit32AttributeValue$LT$R$C$Offset$GT$9u16_value17h9b8a8140366582a9E', symObjAddr: 0x86CD8, symBinAddr: 0x876A8, symSize: 0xB8 }
  - { offsetInCU: 0x3441F, offset: 0x935BB, size: 0x8, addend: 0x0, symName: __ZN5gimli4read6reader6Reader12read_address17h109f78aa8c78bb69E, symObjAddr: 0x86D90, symBinAddr: 0x87760, symSize: 0x1BC }
  - { offsetInCU: 0x34448, offset: 0x935E4, size: 0x8, addend: 0x0, symName: __ZN5gimli4read4unit15skip_attributes17h39870cf83424fb88E, symObjAddr: 0x851D4, symBinAddr: 0x85BA4, symSize: 0x384 }
  - { offsetInCU: 0x34450, offset: 0x935EC, size: 0x8, addend: 0x0, symName: '__ZN4core3ptr491drop_in_place$LT$core..slice..sort..merge_sort..BufGuard$LT$addr2line..function..FunctionAddress$C$alloc..slice..stable_sort$LT$addr2line..function..FunctionAddress$C$alloc..slice..$LT$impl$u20$$u5b$addr2line..function..FunctionAddress$u5d$$GT$..sort_by_key$LT$u64$C$addr2line..function..Functions$LT$gimli..read..endian_slice..EndianSlice$LT$gimli..endianity..LittleEndian$GT$$GT$..parse..$u7b$$u7b$closure$u7d$$u7d$$GT$..$u7b$$u7b$closure$u7d$$u7d$$GT$..$u7b$$u7b$closure$u7d$$u7d$$GT$$GT$17h4dab912f9efbbd2eE', symObjAddr: 0x85558, symBinAddr: 0x85F28, symSize: 0x4 }
  - { offsetInCU: 0x35148, offset: 0x942E4, size: 0x8, addend: 0x0, symName: '__ZN4core3ptr491drop_in_place$LT$core..slice..sort..merge_sort..BufGuard$LT$addr2line..function..FunctionAddress$C$alloc..slice..stable_sort$LT$addr2line..function..FunctionAddress$C$alloc..slice..$LT$impl$u20$$u5b$addr2line..function..FunctionAddress$u5d$$GT$..sort_by_key$LT$u64$C$addr2line..function..Functions$LT$gimli..read..endian_slice..EndianSlice$LT$gimli..endianity..LittleEndian$GT$$GT$..parse..$u7b$$u7b$closure$u7d$$u7d$$GT$..$u7b$$u7b$closure$u7d$$u7d$$GT$..$u7b$$u7b$closure$u7d$$u7d$$GT$$GT$17h4dab912f9efbbd2eE', symObjAddr: 0x85558, symBinAddr: 0x85F28, symSize: 0x4 }
  - { offsetInCU: 0x35395, offset: 0x94531, size: 0x8, addend: 0x0, symName: __ZN5gimli4read6reader6Reader12read_sleb12817h715e271842e9ac8fE, symObjAddr: 0x82558, symBinAddr: 0x82F28, symSize: 0x230 }
  - { offsetInCU: 0x3539D, offset: 0x94539, size: 0x8, addend: 0x0, symName: '__ZN5alloc7raw_vec19RawVec$LT$T$C$A$GT$16reserve_for_push17h46ab89a77c718d72E', symObjAddr: 0x82788, symBinAddr: 0x83158, symSize: 0xC0 }
  - { offsetInCU: 0x354BD, offset: 0x94659, size: 0x8, addend: 0x0, symName: __ZN5gimli4read6reader6Reader12read_address17h109f78aa8c78bb69E, symObjAddr: 0x86D90, symBinAddr: 0x87760, symSize: 0x1BC }
  - { offsetInCU: 0x354C5, offset: 0x94661, size: 0x8, addend: 0x0, symName: __ZN5gimli4read6reader6Reader17read_sized_offset17h799c5602974962a1E, symObjAddr: 0x86F4C, symBinAddr: 0x8791C, symSize: 0x1B4 }
  - { offsetInCU: 0x357D2, offset: 0x9496E, size: 0x8, addend: 0x0, symName: __ZN5gimli4read6reader6Reader17read_sized_offset17h799c5602974962a1E, symObjAddr: 0x86F4C, symBinAddr: 0x8791C, symSize: 0x1B4 }
  - { offsetInCU: 0x357E1, offset: 0x9497D, size: 0x8, addend: 0x0, symName: __ZN5gimli4read6reader6Reader17read_sized_offset17h799c5602974962a1E, symObjAddr: 0x86F4C, symBinAddr: 0x8791C, symSize: 0x1B4 }
  - { offsetInCU: 0x357E9, offset: 0x94985, size: 0x8, addend: 0x0, symName: __ZN5gimli4read6reader6Reader11read_offset17h733d3c321871eaf8E, symObjAddr: 0x87100, symBinAddr: 0x87AD0, symSize: 0xF4 }
  - { offsetInCU: 0x35B50, offset: 0x94CEC, size: 0x8, addend: 0x0, symName: __ZN5gimli4read6reader6Reader11read_offset17h733d3c321871eaf8E, symObjAddr: 0x87100, symBinAddr: 0x87AD0, symSize: 0xF4 }
  - { offsetInCU: 0x35B58, offset: 0x94CF4, size: 0x8, addend: 0x0, symName: __ZN5gimli4read6reader6Reader8read_u6417ha5267b44976b663fE, symObjAddr: 0x871F4, symBinAddr: 0x87BC4, symSize: 0x80 }
  - { offsetInCU: 0x35D06, offset: 0x94EA2, size: 0x8, addend: 0x0, symName: __ZN5gimli4read6reader6Reader8read_u6417ha5267b44976b663fE, symObjAddr: 0x871F4, symBinAddr: 0x87BC4, symSize: 0x80 }
  - { offsetInCU: 0x35D0E, offset: 0x94EAA, size: 0x8, addend: 0x0, symName: '__ZN4core3ptr124drop_in_place$LT$addr2line..ResDwarf$LT$gimli..read..endian_slice..EndianSlice$LT$gimli..endianity..LittleEndian$GT$$GT$$GT$17h688f725ca30a557cE', symObjAddr: 0x87274, symBinAddr: 0x87C44, symSize: 0x114 }
  - { offsetInCU: 0x36153, offset: 0x952EF, size: 0x8, addend: 0x0, symName: '__ZN5gimli4read8rnglists20RngListIter$LT$R$GT$4next17h36ca3af345ea5da5E', symObjAddr: 0x8323C, symBinAddr: 0x83C0C, symSize: 0x994 }
  - { offsetInCU: 0x3615B, offset: 0x952F7, size: 0x8, addend: 0x0, symName: __ZN5gimli4read4unit15parse_attribute17hd71b57678f7d8c75E, symObjAddr: 0x83BD0, symBinAddr: 0x845A0, symSize: 0x1120 }
  - { offsetInCU: 0x37D2A, offset: 0x96EC6, size: 0x8, addend: 0x0, symName: __ZN5gimli4read4line15FileEntryFormat5parse17h68488c0557477708E, symObjAddr: 0x8C228, symBinAddr: 0x8CB6C, symSize: 0x2AC }
  - { offsetInCU: 0x37D32, offset: 0x96ECE, size: 0x8, addend: 0x0, symName: __ZN5gimli4read4line15parse_attribute17h8c6d44c364e95a23E, symObjAddr: 0x8C4D4, symBinAddr: 0x8CE18, symSize: 0x980 }
  - { offsetInCU: 0x38646, offset: 0x977E2, size: 0x8, addend: 0x0, symName: __ZN5gimli4read4line15parse_attribute17h8c6d44c364e95a23E, symObjAddr: 0x8C4D4, symBinAddr: 0x8CE18, symSize: 0x980 }
  - { offsetInCU: 0x3864E, offset: 0x977EA, size: 0x8, addend: 0x0, symName: '__ZN4core3ptr164drop_in_place$LT$alloc..vec..Vec$LT$gimli..read..line..FileEntry$LT$gimli..read..endian_slice..EndianSlice$LT$gimli..endianity..LittleEndian$GT$$C$usize$GT$$GT$$GT$17h94b88e763fa51901E', symObjAddr: 0x8CE54, symBinAddr: 0x8D798, symSize: 0x10 }
  - { offsetInCU: 0x39C23, offset: 0x98DBF, size: 0x8, addend: 0x0, symName: '__ZN5gimli4read7aranges30ArangeHeader$LT$R$C$Offset$GT$5parse17h71ad12bd0efe254aE', symObjAddr: 0x8BEC8, symBinAddr: 0x8C80C, symSize: 0x344 }
  - { offsetInCU: 0x39C2B, offset: 0x98DC7, size: 0x8, addend: 0x0, symName: '__ZN4core3ptr52drop_in_place$LT$gimli..read..abbrev..Attributes$GT$17h64e8e74e4ae6840dE', symObjAddr: 0x8C20C, symBinAddr: 0x8CB50, symSize: 0x1C }
  - { offsetInCU: 0x3A7CA, offset: 0x99966, size: 0x8, addend: 0x0, symName: '__ZN9addr2line16Context$LT$R$GT$11find_frames17hb25f89c3d96e63e3E', symObjAddr: 0x7D850, symBinAddr: 0x7E220, symSize: 0x24A8 }
  - { offsetInCU: 0x3A7D2, offset: 0x9996E, size: 0x8, addend: 0x0, symName: '__ZN9addr2line18FrameIter$LT$R$GT$4next17h1c12aac86daa5c46E', symObjAddr: 0x7FCF8, symBinAddr: 0x806C8, symSize: 0x21C }
  - { offsetInCU: 0x3EBAB, offset: 0x9DD47, size: 0x8, addend: 0x0, symName: '__ZN9addr2line16ResUnit$LT$R$GT$11parse_lines17h19d290c198263533E', symObjAddr: 0x805F4, symBinAddr: 0x80FC4, symSize: 0x1EDC }
  - { offsetInCU: 0x3EBB3, offset: 0x9DD4F, size: 0x8, addend: 0x0, symName: '__ZN4core3ptr78drop_in_place$LT$alloc..vec..Vec$LT$gimli..read..line..FileEntryFormat$GT$$GT$17ha105d1c995d30babE', symObjAddr: 0x824D0, symBinAddr: 0x82EA0, symSize: 0x10 }
  - { offsetInCU: 0x4321A, offset: 0xA23B6, size: 0x8, addend: 0x0, symName: '__ZN9addr2line16ResUnit$LT$R$GT$11render_file17h8b193807864dbeb7E', symObjAddr: 0x828B4, symBinAddr: 0x83284, symSize: 0x378 }
  - { offsetInCU: 0x43222, offset: 0xA23BE, size: 0x8, addend: 0x0, symName: '__ZN5alloc7raw_vec19RawVec$LT$T$C$A$GT$16reserve_for_push17h0783e60114b7f816E', symObjAddr: 0x82C2C, symBinAddr: 0x835FC, symSize: 0xD4 }
  - { offsetInCU: 0x439B2, offset: 0xA2B4E, size: 0x8, addend: 0x0, symName: '__ZN9addr2line8function17Function$LT$R$GT$14parse_children17hfb0f86a1cb3e0b1dE', symObjAddr: 0x85738, symBinAddr: 0x86108, symSize: 0xD44 }
  - { offsetInCU: 0x439BA, offset: 0xA2B56, size: 0x8, addend: 0x0, symName: __ZN9addr2line8function9name_attr17hb1f16c253f726ea9E, symObjAddr: 0x8647C, symBinAddr: 0x86E4C, symSize: 0x194 }
  - { offsetInCU: 0x44CDF, offset: 0xA3E7B, size: 0x8, addend: 0x0, symName: __ZN9addr2line8function9name_attr17hb1f16c253f726ea9E, symObjAddr: 0x8647C, symBinAddr: 0x86E4C, symSize: 0x194 }
  - { offsetInCU: 0x44CE7, offset: 0xA3E83, size: 0x8, addend: 0x0, symName: '__ZN4core3ptr164drop_in_place$LT$alloc..vec..Vec$LT$addr2line..function..InlinedFunction$LT$gimli..read..endian_slice..EndianSlice$LT$gimli..endianity..LittleEndian$GT$$GT$$GT$$GT$17h9fb9578ea95016d1E', symObjAddr: 0x86610, symBinAddr: 0x86FE0, symSize: 0x10 }
  - { offsetInCU: 0x44EEC, offset: 0xA4088, size: 0x8, addend: 0x0, symName: __ZN9addr2line8function10name_entry17h38a72f99420e577cE, symObjAddr: 0x8670C, symBinAddr: 0x870DC, symSize: 0x3D0 }
  - { offsetInCU: 0x44EF4, offset: 0xA4090, size: 0x8, addend: 0x0, symName: '__ZN5alloc7raw_vec19RawVec$LT$T$C$A$GT$16reserve_for_push17h4a71a84905079355E', symObjAddr: 0x86ADC, symBinAddr: 0x874AC, symSize: 0xD4 }
  - { offsetInCU: 0x45495, offset: 0xA4631, size: 0x8, addend: 0x0, symName: '__ZN9addr2line18FrameIter$LT$R$GT$4next17h1c12aac86daa5c46E', symObjAddr: 0x7FCF8, symBinAddr: 0x806C8, symSize: 0x21C }
  - { offsetInCU: 0x4549D, offset: 0xA4639, size: 0x8, addend: 0x0, symName: '__ZN4core3ptr125drop_in_place$LT$addr2line..FrameIter$LT$gimli..read..endian_slice..EndianSlice$LT$gimli..endianity..LittleEndian$GT$$GT$$GT$17ha50f525ddc8f6e88E', symObjAddr: 0x7FF14, symBinAddr: 0x808E4, symSize: 0x24 }
  - { offsetInCU: 0x45956, offset: 0xA4AF2, size: 0x8, addend: 0x0, symName: '__ZN9addr2line17ResDwarf$LT$R$GT$5parse17hdb321e617da9181dE', symObjAddr: 0x87F34, symBinAddr: 0x88878, symSize: 0x3F5C }
  - { offsetInCU: 0x4595E, offset: 0xA4AFA, size: 0x8, addend: 0x0, symName: '__ZN4core3ptr130drop_in_place$LT$gimli..read..dwarf..Dwarf$LT$gimli..read..endian_slice..EndianSlice$LT$gimli..endianity..LittleEndian$GT$$GT$$GT$17h018f9b419d6b3afcE', symObjAddr: 0x8BE90, symBinAddr: 0x8C7D4, symSize: 0x28 }
  - { offsetInCU: 0x1F, offset: 0xADE86, size: 0x8, addend: 0x0, symName: __ZN4core3ops8function6FnOnce9call_once17h4e2d2224d3f97e34E, symObjAddr: 0x2A348, symBinAddr: 0x2DCA0, symSize: 0x8 }
  - { offsetInCU: 0x27, offset: 0xADE8E, size: 0x8, addend: 0x0, symName: __ZN3std6thread5local2os13destroy_value17h1c18e83782650040E, symObjAddr: 0x325E0, symBinAddr: 0x35BE4, symSize: 0x7C }
  - { offsetInCU: 0x110, offset: 0xADF77, size: 0x8, addend: 0x0, symName: __ZN4core7unicode12unicode_data15grapheme_extend6lookup17h5bb371774d311cd4E, symObjAddr: 0x2DAC4, symBinAddr: 0x31104, symSize: 0x130 }
  - { offsetInCU: 0x118, offset: 0xADF7F, size: 0x8, addend: 0x0, symName: __ZN4core7unicode9printable12is_printable17h551230d49321f346E, symObjAddr: 0x2DBF4, symBinAddr: 0x31234, symSize: 0x108 }
  - { offsetInCU: 0x2DE, offset: 0xAE145, size: 0x8, addend: 0x0, symName: __ZN4core7unicode12unicode_data14case_ignorable6lookup17h673ff010835712bfE, symObjAddr: 0x32380, symBinAddr: 0x35984, symSize: 0x130 }
  - { offsetInCU: 0x2E6, offset: 0xAE14D, size: 0x8, addend: 0x0, symName: __ZN4core7unicode12unicode_data5cased6lookup17h3f95d54f7d03d9efE, symObjAddr: 0x324B0, symBinAddr: 0x35AB4, symSize: 0x130 }
  - { offsetInCU: 0x4AA, offset: 0xAE311, size: 0x8, addend: 0x0, symName: __ZN4core7unicode12unicode_data5cased6lookup17h3f95d54f7d03d9efE, symObjAddr: 0x324B0, symBinAddr: 0x35AB4, symSize: 0x130 }
  - { offsetInCU: 0x4B2, offset: 0xAE319, size: 0x8, addend: 0x0, symName: __ZN3std6thread5local2os13destroy_value17h1c18e83782650040E, symObjAddr: 0x325E0, symBinAddr: 0x35BE4, symSize: 0x7C }
  - { offsetInCU: 0x69D, offset: 0xAE504, size: 0x8, addend: 0x0, symName: __ZN4core7unicode9printable12is_printable17h551230d49321f346E, symObjAddr: 0x2DBF4, symBinAddr: 0x31234, symSize: 0x108 }
  - { offsetInCU: 0x6A5, offset: 0xAE50C, size: 0x8, addend: 0x0, symName: __ZN4core7unicode9printable5check17he1481b55aa798ba6E, symObjAddr: 0x2DCFC, symBinAddr: 0x3133C, symSize: 0x124 }
  - { offsetInCU: 0x6B6, offset: 0xAE51D, size: 0x8, addend: 0x0, symName: __ZN4core7unicode9printable5check17he1481b55aa798ba6E, symObjAddr: 0x2DCFC, symBinAddr: 0x3133C, symSize: 0x124 }
  - { offsetInCU: 0x6BE, offset: 0xAE525, size: 0x8, addend: 0x0, symName: __ZN4core3str19slice_error_fail_rt17hb629263ff073fa48E, symObjAddr: 0x2DE20, symBinAddr: 0x31460, symSize: 0x370 }
  - { offsetInCU: 0x971, offset: 0xAE7D8, size: 0x8, addend: 0x0, symName: __ZN4core3str19slice_error_fail_rt17hb629263ff073fa48E, symObjAddr: 0x2DE20, symBinAddr: 0x31460, symSize: 0x370 }
  - { offsetInCU: 0xA55, offset: 0xAE8BC, size: 0x8, addend: 0x0, symName: __ZN4core3num6bignum8Big32x4010mul_digits17hfcebfab3b4ead633E, symObjAddr: 0x2B9B8, symBinAddr: 0x2F104, symSize: 0x220 }
  - { offsetInCU: 0xA5D, offset: 0xAE8C4, size: 0x8, addend: 0x0, symName: __ZN4core3num6bignum8Big32x408mul_pow217h1b4420e307901419E, symObjAddr: 0x2BBD8, symBinAddr: 0x2F324, symSize: 0x360 }
  - { offsetInCU: 0xD2D, offset: 0xAEB94, size: 0x8, addend: 0x0, symName: __ZN4core3num6bignum8Big32x408mul_pow217h1b4420e307901419E, symObjAddr: 0x2BBD8, symBinAddr: 0x2F324, symSize: 0x360 }
  - { offsetInCU: 0xD35, offset: 0xAEB9C, size: 0x8, addend: 0x0, symName: __ZN4core5slice5index22slice_index_order_fail17hbc43e13ac6e9a204E, symObjAddr: 0x2BF38, symBinAddr: 0xBC5B4, symSize: 0xC }
  - { offsetInCU: 0x102E, offset: 0xAEE95, size: 0x8, addend: 0x0, symName: __ZN4core3num7flt2dec8strategy6dragon9mul_pow1017hdd62b98b8eaa54f7E, symObjAddr: 0x2B844, symBinAddr: 0x2EF90, symSize: 0x174 }
  - { offsetInCU: 0x1036, offset: 0xAEE9D, size: 0x8, addend: 0x0, symName: __ZN4core3num6bignum8Big32x4010mul_digits17hfcebfab3b4ead633E, symObjAddr: 0x2B9B8, symBinAddr: 0x2F104, symSize: 0x220 }
  - { offsetInCU: 0x1207, offset: 0xAF06E, size: 0x8, addend: 0x0, symName: __ZN4core3num7flt2dec8strategy5grisu16format_exact_opt14possibly_round17hca42a2ec43997641E, symObjAddr: 0x2BF94, symBinAddr: 0x2F6D4, symSize: 0x174 }
  - { offsetInCU: 0x120F, offset: 0xAF076, size: 0x8, addend: 0x0, symName: __ZN4core3num7flt2dec17digits_to_dec_str17ha5272d80ea6dc234E, symObjAddr: 0x2C108, symBinAddr: 0x2F848, symSize: 0x13C }
  - { offsetInCU: 0x13FE, offset: 0xAF265, size: 0x8, addend: 0x0, symName: __ZN4core3num7flt2dec17digits_to_dec_str17ha5272d80ea6dc234E, symObjAddr: 0x2C108, symBinAddr: 0x2F848, symSize: 0x13C }
  - { offsetInCU: 0x1406, offset: 0xAF26D, size: 0x8, addend: 0x0, symName: '__ZN4core3fmt3num52_$LT$impl$u20$core..fmt..Debug$u20$for$u20$usize$GT$3fmt17h299f80a33efe8d1eE', symObjAddr: 0x2C244, symBinAddr: 0x2F984, symSize: 0x230 }
  - { offsetInCU: 0x1537, offset: 0xAF39E, size: 0x8, addend: 0x0, symName: '__ZN68_$LT$core..num..error..ParseIntError$u20$as$u20$core..fmt..Debug$GT$3fmt17hd1ff34cf42a26b99E', symObjAddr: 0x2F18C, symBinAddr: 0x32790, symSize: 0xC8 }
  - { offsetInCU: 0x153F, offset: 0xAF3A6, size: 0x8, addend: 0x0, symName: '__ZN42_$LT$$RF$T$u20$as$u20$core..fmt..Debug$GT$3fmt17h2341f6a3c98715d1E', symObjAddr: 0x2F254, symBinAddr: 0x32858, symSize: 0x34 }
  - { offsetInCU: 0x166E, offset: 0xAF4D5, size: 0x8, addend: 0x0, symName: '__ZN4core3num60_$LT$impl$u20$core..str..traits..FromStr$u20$for$u20$u64$GT$8from_str17h324f5b70bd1b31c9E', symObjAddr: 0x2F288, symBinAddr: 0x3288C, symSize: 0xF4 }
  - { offsetInCU: 0x1676, offset: 0xAF4DD, size: 0x8, addend: 0x0, symName: '__ZN67_$LT$core..array..TryFromSliceError$u20$as$u20$core..fmt..Debug$GT$3fmt17h3b6c9e6d7b8b6f2cE', symObjAddr: 0x2F37C, symBinAddr: 0x32980, symSize: 0xD8 }
  - { offsetInCU: 0x1C81, offset: 0xAFAE8, size: 0x8, addend: 0x0, symName: __ZN4core5slice5index26slice_start_index_len_fail17hc8489d7e1203b90aE, symObjAddr: 0x2AD14, symBinAddr: 0xBC42C, symSize: 0xC }
  - { offsetInCU: 0x1C89, offset: 0xAFAF0, size: 0x8, addend: 0x0, symName: __ZN4core5slice5index29slice_start_index_len_fail_rt17hcd5b8e9b256ea10fE, symObjAddr: 0x2AD20, symBinAddr: 0x2E5E8, symSize: 0x50 }
  - { offsetInCU: 0x1CA2, offset: 0xAFB09, size: 0x8, addend: 0x0, symName: __ZN4core5slice5index29slice_start_index_len_fail_rt17hcd5b8e9b256ea10fE, symObjAddr: 0x2AD20, symBinAddr: 0x2E5E8, symSize: 0x50 }
  - { offsetInCU: 0x1CAA, offset: 0xAFB11, size: 0x8, addend: 0x0, symName: __ZN4core5slice5index24slice_end_index_len_fail17hbb3278d42ba8fc28E, symObjAddr: 0x2AD70, symBinAddr: 0xBC438, symSize: 0xC }
  - { offsetInCU: 0x1CDC, offset: 0xAFB43, size: 0x8, addend: 0x0, symName: __ZN4core5slice5index24slice_end_index_len_fail17hbb3278d42ba8fc28E, symObjAddr: 0x2AD70, symBinAddr: 0xBC438, symSize: 0xC }
  - { offsetInCU: 0x1CE4, offset: 0xAFB4B, size: 0x8, addend: 0x0, symName: __ZN4core5slice5index27slice_end_index_len_fail_rt17h9fe78b29b5c75185E, symObjAddr: 0x2AD7C, symBinAddr: 0x2E638, symSize: 0x50 }
  - { offsetInCU: 0x1CFD, offset: 0xAFB64, size: 0x8, addend: 0x0, symName: __ZN4core5slice5index27slice_end_index_len_fail_rt17h9fe78b29b5c75185E, symObjAddr: 0x2AD7C, symBinAddr: 0x2E638, symSize: 0x50 }
  - { offsetInCU: 0x1D05, offset: 0xAFB6C, size: 0x8, addend: 0x0, symName: __ZN4core3fmt9Formatter3pad17hf1508dad8596cd58E, symObjAddr: 0x2ADCC, symBinAddr: 0x2E688, symSize: 0x47C }
  - { offsetInCU: 0x204C, offset: 0xAFEB3, size: 0x8, addend: 0x0, symName: __ZN4core5slice5index22slice_index_order_fail17hbc43e13ac6e9a204E, symObjAddr: 0x2BF38, symBinAddr: 0xBC5B4, symSize: 0xC }
  - { offsetInCU: 0x2054, offset: 0xAFEBB, size: 0x8, addend: 0x0, symName: __ZN4core5slice5index25slice_index_order_fail_rt17haf0c4a338658f6c2E, symObjAddr: 0x2BF44, symBinAddr: 0x2F684, symSize: 0x50 }
  - { offsetInCU: 0x206D, offset: 0xAFED4, size: 0x8, addend: 0x0, symName: __ZN4core5slice5index25slice_index_order_fail_rt17haf0c4a338658f6c2E, symObjAddr: 0x2BF44, symBinAddr: 0x2F684, symSize: 0x50 }
  - { offsetInCU: 0x2075, offset: 0xAFEDC, size: 0x8, addend: 0x0, symName: __ZN4core3num7flt2dec8strategy5grisu16format_exact_opt14possibly_round17hca42a2ec43997641E, symObjAddr: 0x2BF94, symBinAddr: 0x2F6D4, symSize: 0x174 }
  - { offsetInCU: 0x22D0, offset: 0xB0137, size: 0x8, addend: 0x0, symName: __ZN4core5slice6memchr14memchr_aligned17h61d1ea06064e3dd8E, symObjAddr: 0x2C4A4, symBinAddr: 0x2FBE4, symSize: 0x118 }
  - { offsetInCU: 0x22D8, offset: 0xB013F, size: 0x8, addend: 0x0, symName: __ZN4core3str8converts9from_utf817ha4be99ef10616e66E, symObjAddr: 0x2C5BC, symBinAddr: 0x2FCFC, symSize: 0x2C0 }
  - { offsetInCU: 0x2A32, offset: 0xB0899, size: 0x8, addend: 0x0, symName: __ZN4core3fmt9Formatter12pad_integral17h6a00a2cef8a7ae28E, symObjAddr: 0x2A524, symBinAddr: 0x2DDF8, symSize: 0x290 }
  - { offsetInCU: 0x2A3A, offset: 0xB08A1, size: 0x8, addend: 0x0, symName: __ZN4core3str5count14do_count_chars17h0870670f169fb652E, symObjAddr: 0x2A7B4, symBinAddr: 0x2E088, symSize: 0x4E4 }
  - { offsetInCU: 0x2CA3, offset: 0xB0B0A, size: 0x8, addend: 0x0, symName: __ZN4core3str5count14do_count_chars17h0870670f169fb652E, symObjAddr: 0x2A7B4, symBinAddr: 0x2E088, symSize: 0x4E4 }
  - { offsetInCU: 0x2DD8, offset: 0xB0C3F, size: 0x8, addend: 0x0, symName: __ZN4core3fmt9Formatter3pad17hf1508dad8596cd58E, symObjAddr: 0x2ADCC, symBinAddr: 0x2E688, symSize: 0x47C }
  - { offsetInCU: 0x2DE0, offset: 0xB0C47, size: 0x8, addend: 0x0, symName: __ZN4core9panicking5panic17h26cf245bd00f43b4E, symObjAddr: 0x2B248, symBinAddr: 0xBC444, symSize: 0x38 }
  - { offsetInCU: 0x329F, offset: 0xB1106, size: 0x8, addend: 0x0, symName: __ZN4core9panicking5panic17h26cf245bd00f43b4E, symObjAddr: 0x2B248, symBinAddr: 0xBC444, symSize: 0x38 }
  - { offsetInCU: 0x3309, offset: 0xB1170, size: 0x8, addend: 0x0, symName: __ZN4core9panicking5panic17h26cf245bd00f43b4E, symObjAddr: 0x2B248, symBinAddr: 0xBC444, symSize: 0x38 }
  - { offsetInCU: 0x3379, offset: 0xB11E0, size: 0x8, addend: 0x0, symName: __ZN4core3fmt9Formatter19pad_formatted_parts17h786da2bbafaf35d1E, symObjAddr: 0x2F454, symBinAddr: 0x32A58, symSize: 0x228 }
  - { offsetInCU: 0x3381, offset: 0xB11E8, size: 0x8, addend: 0x0, symName: __ZN4core3fmt9Formatter21write_formatted_parts17h2d9c95e421eb4a17E, symObjAddr: 0x2F67C, symBinAddr: 0x32C80, symSize: 0x210 }
  - { offsetInCU: 0x3528, offset: 0xB138F, size: 0x8, addend: 0x0, symName: __ZN4core3fmt9Formatter21write_formatted_parts17h2d9c95e421eb4a17E, symObjAddr: 0x2F67C, symBinAddr: 0x32C80, symSize: 0x210 }
  - { offsetInCU: 0x3530, offset: 0xB1397, size: 0x8, addend: 0x0, symName: __ZN4core3fmt5float29float_to_decimal_common_exact17h1a400ad29d5a74ebE, symObjAddr: 0x2F88C, symBinAddr: 0x32E90, symSize: 0x121C }
  - { offsetInCU: 0x3673, offset: 0xB14DA, size: 0x8, addend: 0x0, symName: __ZN4core3fmt8builders10DebugTuple5field17h9d369753528a3d4aE, symObjAddr: 0x2D254, symBinAddr: 0x308A0, symSize: 0x148 }
  - { offsetInCU: 0x367B, offset: 0xB14E2, size: 0x8, addend: 0x0, symName: __ZN4core3fmt8builders8DebugSet5entry17h582c0ca5361a75fbE, symObjAddr: 0x2D39C, symBinAddr: 0x309E8, symSize: 0x13C }
  - { offsetInCU: 0x36AE, offset: 0xB1515, size: 0x8, addend: 0x0, symName: __ZN4core3fmt8builders8DebugSet5entry17h582c0ca5361a75fbE, symObjAddr: 0x2D39C, symBinAddr: 0x309E8, symSize: 0x13C }
  - { offsetInCU: 0x3855, offset: 0xB16BC, size: 0x8, addend: 0x0, symName: __ZN4core3fmt8builders11DebugStruct5field17h4d04c3c8e4cce501E, symObjAddr: 0x2CE88, symBinAddr: 0x304D4, symSize: 0x1AC }
  - { offsetInCU: 0x385D, offset: 0xB16C4, size: 0x8, addend: 0x0, symName: __ZN4core3fmt5Write10write_char17h229a8261631db523E, symObjAddr: 0x2D034, symBinAddr: 0x30680, symSize: 0xC8 }
  - { offsetInCU: 0x39CE, offset: 0xB1835, size: 0x8, addend: 0x0, symName: __ZN4core3fmt5Write10write_char17h229a8261631db523E, symObjAddr: 0x2D034, symBinAddr: 0x30680, symSize: 0xC8 }
  - { offsetInCU: 0x3A16, offset: 0xB187D, size: 0x8, addend: 0x0, symName: '__ZN68_$LT$core..fmt..builders..PadAdapter$u20$as$u20$core..fmt..Write$GT$9write_str17h11a1dcd56a24263fE', symObjAddr: 0x2CCDC, symBinAddr: 0x30328, symSize: 0x1AC }
  - { offsetInCU: 0x3A1E, offset: 0xB1885, size: 0x8, addend: 0x0, symName: __ZN4core3fmt8builders11DebugStruct5field17h4d04c3c8e4cce501E, symObjAddr: 0x2CE88, symBinAddr: 0x304D4, symSize: 0x1AC }
  - { offsetInCU: 0x3CC0, offset: 0xB1B27, size: 0x8, addend: 0x0, symName: __ZN4core3fmt8builders8DebugSet5entry17h582c0ca5361a75fbE, symObjAddr: 0x2D39C, symBinAddr: 0x309E8, symSize: 0x13C }
  - { offsetInCU: 0x3CC8, offset: 0xB1B2F, size: 0x8, addend: 0x0, symName: '__ZN42_$LT$$RF$T$u20$as$u20$core..fmt..Debug$GT$3fmt17h3188294d87c72c1bE', symObjAddr: 0x2D4D8, symBinAddr: 0x30B24, symSize: 0xC }
  - { offsetInCU: 0x3D09, offset: 0xB1B70, size: 0x8, addend: 0x0, symName: '__ZN42_$LT$$RF$T$u20$as$u20$core..fmt..Debug$GT$3fmt17h3188294d87c72c1bE', symObjAddr: 0x2D4D8, symBinAddr: 0x30B24, symSize: 0xC }
  - { offsetInCU: 0x3DDD, offset: 0xB1C44, size: 0x8, addend: 0x0, symName: '__ZN42_$LT$$RF$T$u20$as$u20$core..fmt..Debug$GT$3fmt17h3188294d87c72c1bE', symObjAddr: 0x2D4D8, symBinAddr: 0x30B24, symSize: 0xC }
  - { offsetInCU: 0x3E4E, offset: 0xB1CB5, size: 0x8, addend: 0x0, symName: '__ZN4core3fmt3num3imp52_$LT$impl$u20$core..fmt..Display$u20$for$u20$u64$GT$3fmt17h565a641eca598e81E', symObjAddr: 0x2A3D4, symBinAddr: 0x2DCA8, symSize: 0x150 }
  - { offsetInCU: 0x3E56, offset: 0xB1CBD, size: 0x8, addend: 0x0, symName: __ZN4core3fmt9Formatter12pad_integral17h6a00a2cef8a7ae28E, symObjAddr: 0x2A524, symBinAddr: 0x2DDF8, symSize: 0x290 }
  - { offsetInCU: 0x3FF2, offset: 0xB1E59, size: 0x8, addend: 0x0, symName: '__ZN4core3fmt3num3imp52_$LT$impl$u20$core..fmt..Display$u20$for$u20$u32$GT$3fmt17ha9815fa155b0ec1eE', symObjAddr: 0x2C8E0, symBinAddr: 0x30014, symSize: 0x150 }
  - { offsetInCU: 0x3FFA, offset: 0xB1E61, size: 0x8, addend: 0x0, symName: '__ZN73_$LT$core..panic..panic_info..PanicInfo$u20$as$u20$core..fmt..Display$GT$3fmt17h423517045c4044a3E', symObjAddr: 0x2CA30, symBinAddr: 0x30164, symSize: 0x178 }
  - { offsetInCU: 0x4188, offset: 0xB1FEF, size: 0x8, addend: 0x0, symName: '__ZN4core3fmt3num3imp52_$LT$impl$u20$core..fmt..Display$u20$for$u20$i32$GT$3fmt17h595fbce2ec63351fE', symObjAddr: 0x31F98, symBinAddr: 0x3559C, symSize: 0x164 }
  - { offsetInCU: 0x4190, offset: 0xB1FF7, size: 0x8, addend: 0x0, symName: '__ZN4core3fmt3num3imp52_$LT$impl$u20$core..fmt..Display$u20$for$u20$i64$GT$3fmt17hd9c631fc046226b8E', symObjAddr: 0x320FC, symBinAddr: 0x35700, symSize: 0x160 }
  - { offsetInCU: 0x4304, offset: 0xB216B, size: 0x8, addend: 0x0, symName: '__ZN4core3fmt3num3imp52_$LT$impl$u20$core..fmt..Display$u20$for$u20$i64$GT$3fmt17hd9c631fc046226b8E', symObjAddr: 0x320FC, symBinAddr: 0x35700, symSize: 0x160 }
  - { offsetInCU: 0x430C, offset: 0xB2173, size: 0x8, addend: 0x0, symName: '__ZN53_$LT$core..fmt..Error$u20$as$u20$core..fmt..Debug$GT$3fmt17h9c9db43da60b0e11E', symObjAddr: 0x3225C, symBinAddr: 0x35860, symSize: 0x18 }
  - { offsetInCU: 0x458C, offset: 0xB23F3, size: 0x8, addend: 0x0, symName: '__ZN4core3fmt3num53_$LT$impl$u20$core..fmt..LowerHex$u20$for$u20$i64$GT$3fmt17hdf837bb1e16c5395E', symObjAddr: 0x31EF8, symBinAddr: 0x354FC, symSize: 0xA0 }
  - { offsetInCU: 0x4594, offset: 0xB23FB, size: 0x8, addend: 0x0, symName: '__ZN4core3fmt3num3imp52_$LT$impl$u20$core..fmt..Display$u20$for$u20$i32$GT$3fmt17h595fbce2ec63351fE', symObjAddr: 0x31F98, symBinAddr: 0x3559C, symSize: 0x164 }
  - { offsetInCU: 0x474D, offset: 0xB25B4, size: 0x8, addend: 0x0, symName: '__ZN4core3fmt3num52_$LT$impl$u20$core..fmt..Debug$u20$for$u20$usize$GT$3fmt17h299f80a33efe8d1eE', symObjAddr: 0x2C244, symBinAddr: 0x2F984, symSize: 0x230 }
  - { offsetInCU: 0x4755, offset: 0xB25BC, size: 0x8, addend: 0x0, symName: '__ZN60_$LT$core..cell..BorrowError$u20$as$u20$core..fmt..Debug$GT$3fmt17h9c9170732da4af4dE', symObjAddr: 0x2C474, symBinAddr: 0x2FBB4, symSize: 0x18 }
  - { offsetInCU: 0x4B57, offset: 0xB29BE, size: 0x8, addend: 0x0, symName: __ZN4core3fmt9Formatter12pad_integral12write_prefix17hfc61ebb386bf6326E, symObjAddr: 0x2AC98, symBinAddr: 0x2E56C, symSize: 0x7C }
  - { offsetInCU: 0x4B5F, offset: 0xB29C6, size: 0x8, addend: 0x0, symName: __ZN4core5slice5index26slice_start_index_len_fail17hc8489d7e1203b90aE, symObjAddr: 0x2AD14, symBinAddr: 0xBC42C, symSize: 0xC }
  - { offsetInCU: 0x4B95, offset: 0xB29FC, size: 0x8, addend: 0x0, symName: '__ZN42_$LT$$RF$T$u20$as$u20$core..fmt..Debug$GT$3fmt17h6ec52f1fc3650d2eE', symObjAddr: 0x2B3B8, symBinAddr: 0x2EB04, symSize: 0x10 }
  - { offsetInCU: 0x4B9D, offset: 0xB2A04, size: 0x8, addend: 0x0, symName: '__ZN59_$LT$core..fmt..Arguments$u20$as$u20$core..fmt..Display$GT$3fmt17h444c988a7a5a607aE', symObjAddr: 0x2B3C8, symBinAddr: 0x2EB14, symSize: 0x38 }
  - { offsetInCU: 0x4BB6, offset: 0xB2A1D, size: 0x8, addend: 0x0, symName: '__ZN42_$LT$$RF$T$u20$as$u20$core..fmt..Debug$GT$3fmt17h7cd5b6a90da645a4E', symObjAddr: 0x2B610, symBinAddr: 0x2ED5C, symSize: 0x234 }
  - { offsetInCU: 0x4BBE, offset: 0xB2A25, size: 0x8, addend: 0x0, symName: __ZN4core3num7flt2dec8strategy6dragon9mul_pow1017hdd62b98b8eaa54f7E, symObjAddr: 0x2B844, symBinAddr: 0x2EF90, symSize: 0x174 }
  - { offsetInCU: 0x4EED, offset: 0xB2D54, size: 0x8, addend: 0x0, symName: '__ZN42_$LT$$RF$T$u20$as$u20$core..fmt..Debug$GT$3fmt17h3188294d87c72c1bE', symObjAddr: 0x2D4D8, symBinAddr: 0x30B24, symSize: 0xC }
  - { offsetInCU: 0x4EF5, offset: 0xB2D5C, size: 0x8, addend: 0x0, symName: '__ZN43_$LT$bool$u20$as$u20$core..fmt..Display$GT$3fmt17ha8d9a83641f43fa4E', symObjAddr: 0x2D4E4, symBinAddr: 0x30B30, symSize: 0x34 }
  - { offsetInCU: 0x4F0E, offset: 0xB2D75, size: 0x8, addend: 0x0, symName: '__ZN42_$LT$$RF$T$u20$as$u20$core..fmt..Debug$GT$3fmt17h230f78d9ea3a2ed0E', symObjAddr: 0x2EFEC, symBinAddr: 0x325F0, symSize: 0x18C }
  - { offsetInCU: 0x4F16, offset: 0xB2D7D, size: 0x8, addend: 0x0, symName: '__ZN42_$LT$$RF$T$u20$as$u20$core..fmt..Debug$GT$3fmt17h79b100f2fd1ac70dE', symObjAddr: 0x2F178, symBinAddr: 0x3277C, symSize: 0x14 }
  - { offsetInCU: 0x518F, offset: 0xB2FF6, size: 0x8, addend: 0x0, symName: '__ZN42_$LT$$RF$T$u20$as$u20$core..fmt..Debug$GT$3fmt17h79b100f2fd1ac70dE', symObjAddr: 0x2F178, symBinAddr: 0x3277C, symSize: 0x14 }
  - { offsetInCU: 0x5197, offset: 0xB2FFE, size: 0x8, addend: 0x0, symName: '__ZN68_$LT$core..num..error..ParseIntError$u20$as$u20$core..fmt..Debug$GT$3fmt17hd1ff34cf42a26b99E', symObjAddr: 0x2F18C, symBinAddr: 0x32790, symSize: 0xC8 }
  - { offsetInCU: 0x51BC, offset: 0xB3023, size: 0x8, addend: 0x0, symName: '__ZN68_$LT$core..num..error..ParseIntError$u20$as$u20$core..fmt..Debug$GT$3fmt17hd1ff34cf42a26b99E', symObjAddr: 0x2F18C, symBinAddr: 0x32790, symSize: 0xC8 }
  - { offsetInCU: 0x51CB, offset: 0xB3032, size: 0x8, addend: 0x0, symName: '__ZN42_$LT$$RF$T$u20$as$u20$core..fmt..Debug$GT$3fmt17h2341f6a3c98715d1E', symObjAddr: 0x2F254, symBinAddr: 0x32858, symSize: 0x34 }
  - { offsetInCU: 0x51D3, offset: 0xB303A, size: 0x8, addend: 0x0, symName: '__ZN4core3num60_$LT$impl$u20$core..str..traits..FromStr$u20$for$u20$u64$GT$8from_str17h324f5b70bd1b31c9E', symObjAddr: 0x2F288, symBinAddr: 0x3288C, symSize: 0xF4 }
  - { offsetInCU: 0x51F8, offset: 0xB305F, size: 0x8, addend: 0x0, symName: '__ZN4core3num60_$LT$impl$u20$core..str..traits..FromStr$u20$for$u20$u64$GT$8from_str17h324f5b70bd1b31c9E', symObjAddr: 0x2F288, symBinAddr: 0x3288C, symSize: 0xF4 }
  - { offsetInCU: 0x5212, offset: 0xB3079, size: 0x8, addend: 0x0, symName: '__ZN4core3num60_$LT$impl$u20$core..str..traits..FromStr$u20$for$u20$u64$GT$8from_str17h324f5b70bd1b31c9E', symObjAddr: 0x2F288, symBinAddr: 0x3288C, symSize: 0xF4 }
  - { offsetInCU: 0x5221, offset: 0xB3088, size: 0x8, addend: 0x0, symName: '__ZN42_$LT$$RF$T$u20$as$u20$core..fmt..Debug$GT$3fmt17hb123f938a22a7003E', symObjAddr: 0x32274, symBinAddr: 0x35878, symSize: 0x10C }
  - { offsetInCU: 0x5229, offset: 0xB3090, size: 0x8, addend: 0x0, symName: __ZN4core7unicode12unicode_data14case_ignorable6lookup17h673ff010835712bfE, symObjAddr: 0x32380, symBinAddr: 0x35984, symSize: 0x130 }
  - { offsetInCU: 0x532F, offset: 0xB3196, size: 0x8, addend: 0x0, symName: '__ZN59_$LT$core..fmt..Arguments$u20$as$u20$core..fmt..Display$GT$3fmt17h444c988a7a5a607aE', symObjAddr: 0x2B3C8, symBinAddr: 0x2EB14, symSize: 0x38 }
  - { offsetInCU: 0x5337, offset: 0xB319E, size: 0x8, addend: 0x0, symName: __ZN4core3fmt5write17he2e861ab79f0c367E, symObjAddr: 0x2B400, symBinAddr: 0x2EB4C, symSize: 0x210 }
  - { offsetInCU: 0x538E, offset: 0xB31F5, size: 0x8, addend: 0x0, symName: __ZN4core3fmt5write17he2e861ab79f0c367E, symObjAddr: 0x2B400, symBinAddr: 0x2EB4C, symSize: 0x210 }
  - { offsetInCU: 0x5396, offset: 0xB31FD, size: 0x8, addend: 0x0, symName: '__ZN42_$LT$$RF$T$u20$as$u20$core..fmt..Debug$GT$3fmt17h7cd5b6a90da645a4E', symObjAddr: 0x2B610, symBinAddr: 0x2ED5C, symSize: 0x234 }
  - { offsetInCU: 0x55D0, offset: 0xB3437, size: 0x8, addend: 0x0, symName: '__ZN44_$LT$$RF$T$u20$as$u20$core..fmt..Display$GT$3fmt17h8915351871bd327dE', symObjAddr: 0x2CBA8, symBinAddr: 0x302DC, symSize: 0x38 }
  - { offsetInCU: 0x55D8, offset: 0xB343F, size: 0x8, addend: 0x0, symName: '__ZN44_$LT$$RF$T$u20$as$u20$core..fmt..Display$GT$3fmt17h2ff96d7deccba726E', symObjAddr: 0x2CBE0, symBinAddr: 0x30314, symSize: 0x14 }
  - { offsetInCU: 0x561A, offset: 0xB3481, size: 0x8, addend: 0x0, symName: '__ZN44_$LT$$RF$T$u20$as$u20$core..fmt..Display$GT$3fmt17h2ff96d7deccba726E', symObjAddr: 0x2CBE0, symBinAddr: 0x30314, symSize: 0x14 }
  - { offsetInCU: 0x5622, offset: 0xB3489, size: 0x8, addend: 0x0, symName: __ZN4core9panicking18panic_nounwind_fmt17h537808157b1e030fE, symObjAddr: 0x2CBF4, symBinAddr: 0xBC5CC, symSize: 0x40 }
  - { offsetInCU: 0x5647, offset: 0xB34AE, size: 0x8, addend: 0x0, symName: __ZN4core9panicking18panic_nounwind_fmt17h537808157b1e030fE, symObjAddr: 0x2CBF4, symBinAddr: 0xBC5CC, symSize: 0x40 }
  - { offsetInCU: 0x5661, offset: 0xB34C8, size: 0x8, addend: 0x0, symName: __ZN4core9panicking18panic_nounwind_fmt17h537808157b1e030fE, symObjAddr: 0x2CBF4, symBinAddr: 0xBC5CC, symSize: 0x40 }
  - { offsetInCU: 0x568F, offset: 0xB34F6, size: 0x8, addend: 0x0, symName: __ZN4core3fmt5Write10write_char17h229a8261631db523E, symObjAddr: 0x2D034, symBinAddr: 0x30680, symSize: 0xC8 }
  - { offsetInCU: 0x5697, offset: 0xB34FE, size: 0x8, addend: 0x0, symName: __ZN4core3fmt5Write9write_fmt17h3e7967a08d45dc93E, symObjAddr: 0x2D0FC, symBinAddr: 0x30748, symSize: 0x40 }
  - { offsetInCU: 0x56EB, offset: 0xB3552, size: 0x8, addend: 0x0, symName: __ZN4core3fmt5Write9write_fmt17h3e7967a08d45dc93E, symObjAddr: 0x2D0FC, symBinAddr: 0x30748, symSize: 0x40 }
  - { offsetInCU: 0x56F3, offset: 0xB355A, size: 0x8, addend: 0x0, symName: '__ZN50_$LT$$RF$mut$u20$W$u20$as$u20$core..fmt..Write$GT$9write_str17hf3191540ba4d533fE', symObjAddr: 0x2D13C, symBinAddr: 0x30788, symSize: 0x8 }
  - { offsetInCU: 0x5726, offset: 0xB358D, size: 0x8, addend: 0x0, symName: '__ZN50_$LT$$RF$mut$u20$W$u20$as$u20$core..fmt..Write$GT$9write_str17hf3191540ba4d533fE', symObjAddr: 0x2D13C, symBinAddr: 0x30788, symSize: 0x8 }
  - { offsetInCU: 0x572E, offset: 0xB3595, size: 0x8, addend: 0x0, symName: '__ZN50_$LT$$RF$mut$u20$W$u20$as$u20$core..fmt..Write$GT$10write_char17hc51db2636a4b14c5E', symObjAddr: 0x2D144, symBinAddr: 0x30790, symSize: 0xCC }
  - { offsetInCU: 0x5746, offset: 0xB35AD, size: 0x8, addend: 0x0, symName: '__ZN50_$LT$$RF$mut$u20$W$u20$as$u20$core..fmt..Write$GT$10write_char17hc51db2636a4b14c5E', symObjAddr: 0x2D144, symBinAddr: 0x30790, symSize: 0xCC }
  - { offsetInCU: 0x574E, offset: 0xB35B5, size: 0x8, addend: 0x0, symName: '__ZN50_$LT$$RF$mut$u20$W$u20$as$u20$core..fmt..Write$GT$9write_fmt17h5a1a27aea4884935E', symObjAddr: 0x2D210, symBinAddr: 0x3085C, symSize: 0x44 }
  - { offsetInCU: 0x57C3, offset: 0xB362A, size: 0x8, addend: 0x0, symName: '__ZN50_$LT$$RF$mut$u20$W$u20$as$u20$core..fmt..Write$GT$9write_fmt17h5a1a27aea4884935E', symObjAddr: 0x2D210, symBinAddr: 0x3085C, symSize: 0x44 }
  - { offsetInCU: 0x57CB, offset: 0xB3632, size: 0x8, addend: 0x0, symName: __ZN4core3fmt8builders10DebugTuple5field17h9d369753528a3d4aE, symObjAddr: 0x2D254, symBinAddr: 0x308A0, symSize: 0x148 }
  - { offsetInCU: 0x5803, offset: 0xB366A, size: 0x8, addend: 0x0, symName: '__ZN43_$LT$bool$u20$as$u20$core..fmt..Display$GT$3fmt17ha8d9a83641f43fa4E', symObjAddr: 0x2D4E4, symBinAddr: 0x30B30, symSize: 0x34 }
  - { offsetInCU: 0x580B, offset: 0xB3672, size: 0x8, addend: 0x0, symName: '__ZN40_$LT$str$u20$as$u20$core..fmt..Debug$GT$3fmt17hc3198a7537299967E', symObjAddr: 0x2D518, symBinAddr: 0x30B64, symSize: 0x5A0 }
  - { offsetInCU: 0x584B, offset: 0xB36B2, size: 0x8, addend: 0x0, symName: '__ZN40_$LT$str$u20$as$u20$core..fmt..Debug$GT$3fmt17hc3198a7537299967E', symObjAddr: 0x2D518, symBinAddr: 0x30B64, symSize: 0x5A0 }
  - { offsetInCU: 0x5878, offset: 0xB36DF, size: 0x8, addend: 0x0, symName: '__ZN40_$LT$str$u20$as$u20$core..fmt..Debug$GT$3fmt17hc3198a7537299967E', symObjAddr: 0x2D518, symBinAddr: 0x30B64, symSize: 0x5A0 }
  - { offsetInCU: 0x5880, offset: 0xB36E7, size: 0x8, addend: 0x0, symName: __ZN4core3str16slice_error_fail17hf01fa213164b7ef8E, symObjAddr: 0x2DAB8, symBinAddr: 0xBC6B4, symSize: 0xC }
  - { offsetInCU: 0x5D06, offset: 0xB3B6D, size: 0x8, addend: 0x0, symName: '__ZN41_$LT$char$u20$as$u20$core..fmt..Debug$GT$3fmt17h8d13dcac9700c1f5E', symObjAddr: 0x2E190, symBinAddr: 0x317D0, symSize: 0x310 }
  - { offsetInCU: 0x5D0E, offset: 0xB3B75, size: 0x8, addend: 0x0, symName: '__ZN71_$LT$core..ops..range..Range$LT$Idx$GT$$u20$as$u20$core..fmt..Debug$GT$3fmt17h54bf5f26eea01793E', symObjAddr: 0x2E4A0, symBinAddr: 0x31AE0, symSize: 0x80 }
  - { offsetInCU: 0x5E14, offset: 0xB3C7B, size: 0x8, addend: 0x0, symName: '__ZN43_$LT$char$u20$as$u20$core..fmt..Display$GT$3fmt17hd589fbffec33e1a5E', symObjAddr: 0x2E520, symBinAddr: 0x31B60, symSize: 0xFC }
  - { offsetInCU: 0x5E1C, offset: 0xB3C83, size: 0x8, addend: 0x0, symName: __ZN4core3str6traits23str_index_overflow_fail17h260b3ab16859fde3E, symObjAddr: 0x2E61C, symBinAddr: 0xBC6C0, symSize: 0x3C }
  - { offsetInCU: 0x5ECF, offset: 0xB3D36, size: 0x8, addend: 0x0, symName: __ZN4core3fmt5float29float_to_decimal_common_exact17h1a400ad29d5a74ebE, symObjAddr: 0x2F88C, symBinAddr: 0x32E90, symSize: 0x121C }
  - { offsetInCU: 0x5ED7, offset: 0xB3D3E, size: 0x8, addend: 0x0, symName: __ZN4core3fmt5float32float_to_decimal_common_shortest17h9c308f2e8581f0f2E, symObjAddr: 0x30AA8, symBinAddr: 0x340AC, symSize: 0x1420 }
  - { offsetInCU: 0x7A7E, offset: 0xB58E5, size: 0x8, addend: 0x0, symName: __ZN4core3fmt5float32float_to_decimal_common_shortest17h9c308f2e8581f0f2E, symObjAddr: 0x30AA8, symBinAddr: 0x340AC, symSize: 0x1420 }
  - { offsetInCU: 0x7A86, offset: 0xB58ED, size: 0x8, addend: 0x0, symName: '__ZN4core3fmt5float52_$LT$impl$u20$core..fmt..Display$u20$for$u20$f64$GT$3fmt17hff6db8ff082a1ca0E', symObjAddr: 0x31EC8, symBinAddr: 0x354CC, symSize: 0x30 }
  - { offsetInCU: 0x9D01, offset: 0xB7B68, size: 0x8, addend: 0x0, symName: '__ZN4core3fmt5float52_$LT$impl$u20$core..fmt..Display$u20$for$u20$f64$GT$3fmt17hff6db8ff082a1ca0E', symObjAddr: 0x31EC8, symBinAddr: 0x354CC, symSize: 0x30 }
  - { offsetInCU: 0x9D09, offset: 0xB7B70, size: 0x8, addend: 0x0, symName: '__ZN4core3fmt3num53_$LT$impl$u20$core..fmt..LowerHex$u20$for$u20$i64$GT$3fmt17hdf837bb1e16c5395E', symObjAddr: 0x31EF8, symBinAddr: 0x354FC, symSize: 0xA0 }
  - { offsetInCU: 0x9D2E, offset: 0xB7B95, size: 0x8, addend: 0x0, symName: '__ZN4core3fmt3num53_$LT$impl$u20$core..fmt..LowerHex$u20$for$u20$i64$GT$3fmt17hdf837bb1e16c5395E', symObjAddr: 0x31EF8, symBinAddr: 0x354FC, symSize: 0xA0 }
  - { offsetInCU: 0x9D52, offset: 0xB7BB9, size: 0x8, addend: 0x0, symName: '__ZN53_$LT$core..fmt..Error$u20$as$u20$core..fmt..Debug$GT$3fmt17h9c9db43da60b0e11E', symObjAddr: 0x3225C, symBinAddr: 0x35860, symSize: 0x18 }
  - { offsetInCU: 0x9D5A, offset: 0xB7BC1, size: 0x8, addend: 0x0, symName: '__ZN42_$LT$$RF$T$u20$as$u20$core..fmt..Debug$GT$3fmt17hb123f938a22a7003E', symObjAddr: 0x32274, symBinAddr: 0x35878, symSize: 0x10C }
  - { offsetInCU: 0x9D77, offset: 0xB7BDE, size: 0x8, addend: 0x0, symName: '__ZN53_$LT$core..fmt..Error$u20$as$u20$core..fmt..Debug$GT$3fmt17h9c9db43da60b0e11E', symObjAddr: 0x3225C, symBinAddr: 0x35860, symSize: 0x18 }
  - { offsetInCU: 0x9D7F, offset: 0xB7BE6, size: 0x8, addend: 0x0, symName: '__ZN42_$LT$$RF$T$u20$as$u20$core..fmt..Debug$GT$3fmt17hb123f938a22a7003E', symObjAddr: 0x32274, symBinAddr: 0x35878, symSize: 0x10C }
  - { offsetInCU: 0x9E06, offset: 0xB7C6D, size: 0x8, addend: 0x0, symName: __ZN4core6result13unwrap_failed17he8ba865a060c7873E, symObjAddr: 0x2CC80, symBinAddr: 0xBC658, symSize: 0x5C }
  - { offsetInCU: 0x9E0E, offset: 0xB7C75, size: 0x8, addend: 0x0, symName: '__ZN68_$LT$core..fmt..builders..PadAdapter$u20$as$u20$core..fmt..Write$GT$9write_str17h11a1dcd56a24263fE', symObjAddr: 0x2CCDC, symBinAddr: 0x30328, symSize: 0x1AC }
  - { offsetInCU: 0x9F73, offset: 0xB7DDA, size: 0x8, addend: 0x0, symName: __ZN4core3ops8function6FnOnce9call_once17h4e2d2224d3f97e34E, symObjAddr: 0x2A348, symBinAddr: 0x2DCA0, symSize: 0x8 }
  - { offsetInCU: 0x9F7B, offset: 0xB7DE2, size: 0x8, addend: 0x0, symName: __ZN4core9panicking9panic_fmt17h3be1a78f780a9547E, symObjAddr: 0x2A350, symBinAddr: 0xBC3A8, symSize: 0x34 }
  - { offsetInCU: 0x9F97, offset: 0xB7DFE, size: 0x8, addend: 0x0, symName: __ZN4core3ops8function6FnOnce9call_once17h4e2d2224d3f97e34E, symObjAddr: 0x2A348, symBinAddr: 0x2DCA0, symSize: 0x8 }
  - { offsetInCU: 0x9F9F, offset: 0xB7E06, size: 0x8, addend: 0x0, symName: __ZN4core9panicking9panic_fmt17h3be1a78f780a9547E, symObjAddr: 0x2A350, symBinAddr: 0xBC3A8, symSize: 0x34 }
  - { offsetInCU: 0x9FB0, offset: 0xB7E17, size: 0x8, addend: 0x0, symName: __ZN4core3ops8function6FnOnce9call_once17h4e2d2224d3f97e34E, symObjAddr: 0x2A348, symBinAddr: 0x2DCA0, symSize: 0x8 }
  - { offsetInCU: 0xA07D, offset: 0xB7EE4, size: 0x8, addend: 0x0, symName: '__ZN71_$LT$core..ops..range..Range$LT$Idx$GT$$u20$as$u20$core..fmt..Debug$GT$3fmt17h54bf5f26eea01793E', symObjAddr: 0x2E4A0, symBinAddr: 0x31AE0, symSize: 0x80 }
  - { offsetInCU: 0xA085, offset: 0xB7EEC, size: 0x8, addend: 0x0, symName: '__ZN43_$LT$char$u20$as$u20$core..fmt..Display$GT$3fmt17hd589fbffec33e1a5E', symObjAddr: 0x2E520, symBinAddr: 0x31B60, symSize: 0xFC }
  - { offsetInCU: 0xA1FA, offset: 0xB8061, size: 0x8, addend: 0x0, symName: __ZN4core3str5count14do_count_chars17h0870670f169fb652E, symObjAddr: 0x2A7B4, symBinAddr: 0x2E088, symSize: 0x4E4 }
  - { offsetInCU: 0xA202, offset: 0xB8069, size: 0x8, addend: 0x0, symName: __ZN4core3fmt9Formatter12pad_integral12write_prefix17hfc61ebb386bf6326E, symObjAddr: 0x2AC98, symBinAddr: 0x2E56C, symSize: 0x7C }
  - { offsetInCU: 0xA86E, offset: 0xB86D5, size: 0x8, addend: 0x0, symName: __ZN4core3str6traits23str_index_overflow_fail17h260b3ab16859fde3E, symObjAddr: 0x2E61C, symBinAddr: 0xBC6C0, symSize: 0x3C }
  - { offsetInCU: 0xA876, offset: 0xB86DD, size: 0x8, addend: 0x0, symName: __ZN4core3str7pattern11StrSearcher3new17h44ff08b822caa645E, symObjAddr: 0x2E658, symBinAddr: 0x31C5C, symSize: 0x7B8 }
  - { offsetInCU: 0xA8B1, offset: 0xB8718, size: 0x8, addend: 0x0, symName: __ZN4core3str8converts9from_utf817ha4be99ef10616e66E, symObjAddr: 0x2C5BC, symBinAddr: 0x2FCFC, symSize: 0x2C0 }
  - { offsetInCU: 0xA8B9, offset: 0xB8720, size: 0x8, addend: 0x0, symName: __ZN4core6option13expect_failed17hc1df1895a7f97399E, symObjAddr: 0x2C87C, symBinAddr: 0xBC5C0, symSize: 0xC }
  - { offsetInCU: 0xA8D6, offset: 0xB873D, size: 0x8, addend: 0x0, symName: __ZN4core3str8converts9from_utf817ha4be99ef10616e66E, symObjAddr: 0x2C5BC, symBinAddr: 0x2FCFC, symSize: 0x2C0 }
  - { offsetInCU: 0xA9F8, offset: 0xB885F, size: 0x8, addend: 0x0, symName: __ZN4core3str7pattern11StrSearcher3new17h44ff08b822caa645E, symObjAddr: 0x2E658, symBinAddr: 0x31C5C, symSize: 0x7B8 }
  - { offsetInCU: 0xAA00, offset: 0xB8867, size: 0x8, addend: 0x0, symName: '__ZN87_$LT$core..str..lossy..Utf8Chunks$u20$as$u20$core..iter..traits..iterator..Iterator$GT$4next17h2a2e5fe0ff48f109E', symObjAddr: 0x2EE10, symBinAddr: 0x32414, symSize: 0x1DC }
  - { offsetInCU: 0xAC9E, offset: 0xB8B05, size: 0x8, addend: 0x0, symName: __ZN4core3str16slice_error_fail17hf01fa213164b7ef8E, symObjAddr: 0x2DAB8, symBinAddr: 0xBC6B4, symSize: 0xC }
  - { offsetInCU: 0xACA6, offset: 0xB8B0D, size: 0x8, addend: 0x0, symName: __ZN4core7unicode12unicode_data15grapheme_extend6lookup17h5bb371774d311cd4E, symObjAddr: 0x2DAC4, symBinAddr: 0x31104, symSize: 0x130 }
  - { offsetInCU: 0xACBF, offset: 0xB8B26, size: 0x8, addend: 0x0, symName: __ZN4core3str19slice_error_fail_rt17hb629263ff073fa48E, symObjAddr: 0x2DE20, symBinAddr: 0x31460, symSize: 0x370 }
  - { offsetInCU: 0xACC7, offset: 0xB8B2E, size: 0x8, addend: 0x0, symName: '__ZN41_$LT$char$u20$as$u20$core..fmt..Debug$GT$3fmt17h8d13dcac9700c1f5E', symObjAddr: 0x2E190, symBinAddr: 0x317D0, symSize: 0x310 }
  - { offsetInCU: 0xAF44, offset: 0xB8DAB, size: 0x8, addend: 0x0, symName: '__ZN41_$LT$char$u20$as$u20$core..fmt..Debug$GT$3fmt17h8d13dcac9700c1f5E', symObjAddr: 0x2E190, symBinAddr: 0x317D0, symSize: 0x310 }
  - { offsetInCU: 0xAF73, offset: 0xB8DDA, size: 0x8, addend: 0x0, symName: '__ZN87_$LT$core..str..lossy..Utf8Chunks$u20$as$u20$core..iter..traits..iterator..Iterator$GT$4next17h2a2e5fe0ff48f109E', symObjAddr: 0x2EE10, symBinAddr: 0x32414, symSize: 0x1DC }
  - { offsetInCU: 0xAF7B, offset: 0xB8DE2, size: 0x8, addend: 0x0, symName: '__ZN42_$LT$$RF$T$u20$as$u20$core..fmt..Debug$GT$3fmt17h230f78d9ea3a2ed0E', symObjAddr: 0x2EFEC, symBinAddr: 0x325F0, symSize: 0x18C }
  - { offsetInCU: 0xB2E8, offset: 0xB914F, size: 0x8, addend: 0x0, symName: '__ZN73_$LT$core..panic..panic_info..PanicInfo$u20$as$u20$core..fmt..Display$GT$3fmt17h423517045c4044a3E', symObjAddr: 0x2CA30, symBinAddr: 0x30164, symSize: 0x178 }
  - { offsetInCU: 0xB2F0, offset: 0xB9157, size: 0x8, addend: 0x0, symName: '__ZN44_$LT$$RF$T$u20$as$u20$core..fmt..Display$GT$3fmt17h8915351871bd327dE', symObjAddr: 0x2CBA8, symBinAddr: 0x302DC, symSize: 0x38 }
  - { offsetInCU: 0xB3FC, offset: 0xB9263, size: 0x8, addend: 0x0, symName: __ZN4core9panicking9panic_fmt17h3be1a78f780a9547E, symObjAddr: 0x2A350, symBinAddr: 0xBC3A8, symSize: 0x34 }
  - { offsetInCU: 0xB404, offset: 0xB926B, size: 0x8, addend: 0x0, symName: __ZN4core9panicking18panic_bounds_check17hb70efbd80c62751aE, symObjAddr: 0x2A384, symBinAddr: 0xBC3DC, symSize: 0x50 }
  - { offsetInCU: 0xB437, offset: 0xB929E, size: 0x8, addend: 0x0, symName: __ZN4core9panicking18panic_bounds_check17hb70efbd80c62751aE, symObjAddr: 0x2A384, symBinAddr: 0xBC3DC, symSize: 0x50 }
  - { offsetInCU: 0xB43F, offset: 0xB92A6, size: 0x8, addend: 0x0, symName: '__ZN4core3fmt3num3imp52_$LT$impl$u20$core..fmt..Display$u20$for$u20$u64$GT$3fmt17h565a641eca598e81E', symObjAddr: 0x2A3D4, symBinAddr: 0x2DCA8, symSize: 0x150 }
  - { offsetInCU: 0xB472, offset: 0xB92D9, size: 0x8, addend: 0x0, symName: __ZN4core9panicking5panic17h26cf245bd00f43b4E, symObjAddr: 0x2B248, symBinAddr: 0xBC444, symSize: 0x38 }
  - { offsetInCU: 0xB47A, offset: 0xB92E1, size: 0x8, addend: 0x0, symName: __ZN4core9panicking13assert_failed17h53157ee36ec0f2ceE, symObjAddr: 0x2B280, symBinAddr: 0xBC47C, symSize: 0x44 }
  - { offsetInCU: 0xB4AD, offset: 0xB9314, size: 0x8, addend: 0x0, symName: __ZN4core9panicking13assert_failed17h53157ee36ec0f2ceE, symObjAddr: 0x2B280, symBinAddr: 0xBC47C, symSize: 0x44 }
  - { offsetInCU: 0xB4B5, offset: 0xB931C, size: 0x8, addend: 0x0, symName: __ZN4core9panicking19assert_failed_inner17h3290267b112d2569E, symObjAddr: 0x2B2C4, symBinAddr: 0xBC4C0, symSize: 0xF4 }
  - { offsetInCU: 0xB4CE, offset: 0xB9335, size: 0x8, addend: 0x0, symName: __ZN4core9panicking19assert_failed_inner17h3290267b112d2569E, symObjAddr: 0x2B2C4, symBinAddr: 0xBC4C0, symSize: 0xF4 }
  - { offsetInCU: 0xB4D6, offset: 0xB933D, size: 0x8, addend: 0x0, symName: '__ZN42_$LT$$RF$T$u20$as$u20$core..fmt..Debug$GT$3fmt17h6ec52f1fc3650d2eE', symObjAddr: 0x2B3B8, symBinAddr: 0x2EB04, symSize: 0x10 }
  - { offsetInCU: 0xB524, offset: 0xB938B, size: 0x8, addend: 0x0, symName: __ZN4core9panicking9panic_str17h65139aed6005800aE, symObjAddr: 0x2C888, symBinAddr: 0x2FFBC, symSize: 0x1C }
  - { offsetInCU: 0xB52C, offset: 0xB9393, size: 0x8, addend: 0x0, symName: __ZN4core9panicking13panic_display17h7e7504edc4230186E, symObjAddr: 0x2C8A4, symBinAddr: 0x2FFD8, symSize: 0x3C }
  - { offsetInCU: 0xB544, offset: 0xB93AB, size: 0x8, addend: 0x0, symName: __ZN4core9panicking13panic_display17h7e7504edc4230186E, symObjAddr: 0x2C8A4, symBinAddr: 0x2FFD8, symSize: 0x3C }
  - { offsetInCU: 0xB54C, offset: 0xB93B3, size: 0x8, addend: 0x0, symName: '__ZN4core3fmt3num3imp52_$LT$impl$u20$core..fmt..Display$u20$for$u20$u32$GT$3fmt17ha9815fa155b0ec1eE', symObjAddr: 0x2C8E0, symBinAddr: 0x30014, symSize: 0x150 }
  - { offsetInCU: 0xB57E, offset: 0xB93E5, size: 0x8, addend: 0x0, symName: __ZN4core9panicking18panic_nounwind_fmt17h537808157b1e030fE, symObjAddr: 0x2CBF4, symBinAddr: 0xBC5CC, symSize: 0x40 }
  - { offsetInCU: 0xB586, offset: 0xB93ED, size: 0x8, addend: 0x0, symName: __ZN4core9panicking19panic_cannot_unwind17h41fc28b1dd29ab99E, symObjAddr: 0x2CC34, symBinAddr: 0xBC60C, symSize: 0xC }
  - { offsetInCU: 0xB5BA, offset: 0xB9421, size: 0x8, addend: 0x0, symName: __ZN4core9panicking19panic_cannot_unwind17h41fc28b1dd29ab99E, symObjAddr: 0x2CC34, symBinAddr: 0xBC60C, symSize: 0xC }
  - { offsetInCU: 0xB5C2, offset: 0xB9429, size: 0x8, addend: 0x0, symName: __ZN4core9panicking14panic_nounwind17h9a3717de0c9c1428E, symObjAddr: 0x2CC40, symBinAddr: 0xBC618, symSize: 0x40 }
  - { offsetInCU: 0xB5DB, offset: 0xB9442, size: 0x8, addend: 0x0, symName: __ZN4core9panicking14panic_nounwind17h9a3717de0c9c1428E, symObjAddr: 0x2CC40, symBinAddr: 0xBC618, symSize: 0x40 }
  - { offsetInCU: 0xB5E3, offset: 0xB944A, size: 0x8, addend: 0x0, symName: __ZN4core6result13unwrap_failed17he8ba865a060c7873E, symObjAddr: 0x2CC80, symBinAddr: 0xBC658, symSize: 0x5C }
  - { offsetInCU: 0xBB87, offset: 0xB99EE, size: 0x8, addend: 0x0, symName: __ZN4core6option13expect_failed17hc1df1895a7f97399E, symObjAddr: 0x2C87C, symBinAddr: 0xBC5C0, symSize: 0xC }
  - { offsetInCU: 0xBB8F, offset: 0xB99F6, size: 0x8, addend: 0x0, symName: __ZN4core9panicking9panic_str17h65139aed6005800aE, symObjAddr: 0x2C888, symBinAddr: 0x2FFBC, symSize: 0x1C }
  - { offsetInCU: 0xBC52, offset: 0xB9AB9, size: 0x8, addend: 0x0, symName: '__ZN67_$LT$core..array..TryFromSliceError$u20$as$u20$core..fmt..Debug$GT$3fmt17h3b6c9e6d7b8b6f2cE', symObjAddr: 0x2F37C, symBinAddr: 0x32980, symSize: 0xD8 }
  - { offsetInCU: 0xBC5A, offset: 0xB9AC1, size: 0x8, addend: 0x0, symName: __ZN4core3fmt9Formatter19pad_formatted_parts17h786da2bbafaf35d1E, symObjAddr: 0x2F454, symBinAddr: 0x32A58, symSize: 0x228 }
  - { offsetInCU: 0xBD55, offset: 0xB9BBC, size: 0x8, addend: 0x0, symName: '__ZN60_$LT$core..cell..BorrowError$u20$as$u20$core..fmt..Debug$GT$3fmt17h9c9170732da4af4dE', symObjAddr: 0x2C474, symBinAddr: 0x2FBB4, symSize: 0x18 }
  - { offsetInCU: 0xBD5D, offset: 0xB9BC4, size: 0x8, addend: 0x0, symName: '__ZN63_$LT$core..cell..BorrowMutError$u20$as$u20$core..fmt..Debug$GT$3fmt17h69313de9bcf55716E', symObjAddr: 0x2C48C, symBinAddr: 0x2FBCC, symSize: 0x18 }
  - { offsetInCU: 0xBD7B, offset: 0xB9BE2, size: 0x8, addend: 0x0, symName: '__ZN60_$LT$core..cell..BorrowError$u20$as$u20$core..fmt..Debug$GT$3fmt17h9c9170732da4af4dE', symObjAddr: 0x2C474, symBinAddr: 0x2FBB4, symSize: 0x18 }
  - { offsetInCU: 0xBD83, offset: 0xB9BEA, size: 0x8, addend: 0x0, symName: '__ZN63_$LT$core..cell..BorrowMutError$u20$as$u20$core..fmt..Debug$GT$3fmt17h69313de9bcf55716E', symObjAddr: 0x2C48C, symBinAddr: 0x2FBCC, symSize: 0x18 }
  - { offsetInCU: 0xBD95, offset: 0xB9BFC, size: 0x8, addend: 0x0, symName: '__ZN60_$LT$core..cell..BorrowError$u20$as$u20$core..fmt..Debug$GT$3fmt17h9c9170732da4af4dE', symObjAddr: 0x2C474, symBinAddr: 0x2FBB4, symSize: 0x18 }
  - { offsetInCU: 0xBD9D, offset: 0xB9C04, size: 0x8, addend: 0x0, symName: '__ZN63_$LT$core..cell..BorrowMutError$u20$as$u20$core..fmt..Debug$GT$3fmt17h69313de9bcf55716E', symObjAddr: 0x2C48C, symBinAddr: 0x2FBCC, symSize: 0x18 }
  - { offsetInCU: 0xBDAF, offset: 0xB9C16, size: 0x8, addend: 0x0, symName: '__ZN60_$LT$core..cell..BorrowError$u20$as$u20$core..fmt..Debug$GT$3fmt17h9c9170732da4af4dE', symObjAddr: 0x2C474, symBinAddr: 0x2FBB4, symSize: 0x18 }
  - { offsetInCU: 0xBDB7, offset: 0xB9C1E, size: 0x8, addend: 0x0, symName: '__ZN63_$LT$core..cell..BorrowMutError$u20$as$u20$core..fmt..Debug$GT$3fmt17h69313de9bcf55716E', symObjAddr: 0x2C48C, symBinAddr: 0x2FBCC, symSize: 0x18 }
  - { offsetInCU: 0xBDCE, offset: 0xB9C35, size: 0x8, addend: 0x0, symName: '__ZN63_$LT$core..cell..BorrowMutError$u20$as$u20$core..fmt..Debug$GT$3fmt17h69313de9bcf55716E', symObjAddr: 0x2C48C, symBinAddr: 0x2FBCC, symSize: 0x18 }
  - { offsetInCU: 0xBDD6, offset: 0xB9C3D, size: 0x8, addend: 0x0, symName: __ZN4core5slice6memchr14memchr_aligned17h61d1ea06064e3dd8E, symObjAddr: 0x2C4A4, symBinAddr: 0x2FBE4, symSize: 0x118 }
  - { offsetInCU: 0xBDF4, offset: 0xB9C5B, size: 0x8, addend: 0x0, symName: '__ZN63_$LT$core..cell..BorrowMutError$u20$as$u20$core..fmt..Debug$GT$3fmt17h69313de9bcf55716E', symObjAddr: 0x2C48C, symBinAddr: 0x2FBCC, symSize: 0x18 }
  - { offsetInCU: 0xBDFC, offset: 0xB9C63, size: 0x8, addend: 0x0, symName: __ZN4core5slice6memchr14memchr_aligned17h61d1ea06064e3dd8E, symObjAddr: 0x2C4A4, symBinAddr: 0x2FBE4, symSize: 0x118 }
  - { offsetInCU: 0xBE0E, offset: 0xB9C75, size: 0x8, addend: 0x0, symName: '__ZN63_$LT$core..cell..BorrowMutError$u20$as$u20$core..fmt..Debug$GT$3fmt17h69313de9bcf55716E', symObjAddr: 0x2C48C, symBinAddr: 0x2FBCC, symSize: 0x18 }
  - { offsetInCU: 0xBE16, offset: 0xB9C7D, size: 0x8, addend: 0x0, symName: __ZN4core5slice6memchr14memchr_aligned17h61d1ea06064e3dd8E, symObjAddr: 0x2C4A4, symBinAddr: 0x2FBE4, symSize: 0x118 }
  - { offsetInCU: 0xBE28, offset: 0xB9C8F, size: 0x8, addend: 0x0, symName: '__ZN63_$LT$core..cell..BorrowMutError$u20$as$u20$core..fmt..Debug$GT$3fmt17h69313de9bcf55716E', symObjAddr: 0x2C48C, symBinAddr: 0x2FBCC, symSize: 0x18 }
  - { offsetInCU: 0xBE30, offset: 0xB9C97, size: 0x8, addend: 0x0, symName: __ZN4core5slice6memchr14memchr_aligned17h61d1ea06064e3dd8E, symObjAddr: 0x2C4A4, symBinAddr: 0x2FBE4, symSize: 0x118 }
  - { offsetInCU: 0x1F, offset: 0xB9F0C, size: 0x8, addend: 0x0, symName: __ZN9hashbrown3raw11Fallibility17capacity_overflow17hdb398afcc7488b1fE, symObjAddr: 0x335E0, symBinAddr: 0x36BE4, symSize: 0x3C }
  - { offsetInCU: 0x27, offset: 0xB9F14, size: 0x8, addend: 0x0, symName: __ZN9isar_core6object14object_builder13ObjectBuilder3new17ha07c8866e64f6eaaE, symObjAddr: 0x3362C, symBinAddr: 0x36C30, symSize: 0x1AC }
  - { offsetInCU: 0x68, offset: 0xB9F55, size: 0x8, addend: 0x0, symName: __ZN9hashbrown3raw11Fallibility17capacity_overflow17hdb398afcc7488b1fE, symObjAddr: 0x335E0, symBinAddr: 0x36BE4, symSize: 0x3C }
  - { offsetInCU: 0x70, offset: 0xB9F5D, size: 0x8, addend: 0x0, symName: __ZN9hashbrown3raw11Fallibility9alloc_err17h825c5d874aa2a8bcE, symObjAddr: 0x3361C, symBinAddr: 0x36C20, symSize: 0x10 }
  - { offsetInCU: 0xA3, offset: 0xB9F90, size: 0x8, addend: 0x0, symName: __ZN9hashbrown3raw11Fallibility9alloc_err17h825c5d874aa2a8bcE, symObjAddr: 0x3361C, symBinAddr: 0x36C20, symSize: 0x10 }
  - { offsetInCU: 0xAB, offset: 0xB9F98, size: 0x8, addend: 0x0, symName: __ZN9isar_core6object14object_builder13ObjectBuilder3new17ha07c8866e64f6eaaE, symObjAddr: 0x3362C, symBinAddr: 0x36C30, symSize: 0x1AC }
  - { offsetInCU: 0x1F, offset: 0xB9FD3, size: 0x8, addend: 0x0, symName: __ZN6memchr6memchr8fallback6memchr17h45457239c77ba8c6E, symObjAddr: 0x6CFDC, symBinAddr: 0x6DF28, symSize: 0x11C }
  - { offsetInCU: 0x27, offset: 0xB9FDB, size: 0x8, addend: 0x0, symName: __ZN6object4read7archive24parse_sysv_extended_name17h58e6fbe3437cfb17E, symObjAddr: 0x6D0F8, symBinAddr: 0x6E044, symSize: 0x434 }
  - { offsetInCU: 0xA8, offset: 0xBA05C, size: 0x8, addend: 0x0, symName: __ZN6memchr6memchr8fallback6memchr17h45457239c77ba8c6E, symObjAddr: 0x6CFDC, symBinAddr: 0x6DF28, symSize: 0x11C }
  - { offsetInCU: 0xB0, offset: 0xBA064, size: 0x8, addend: 0x0, symName: __ZN6object4read7archive24parse_sysv_extended_name17h58e6fbe3437cfb17E, symObjAddr: 0x6D0F8, symBinAddr: 0x6E044, symSize: 0x434 }
  - { offsetInCU: 0xC5, offset: 0xBA079, size: 0x8, addend: 0x0, symName: __ZN6memchr6memchr8fallback6memchr17h45457239c77ba8c6E, symObjAddr: 0x6CFDC, symBinAddr: 0x6DF28, symSize: 0x11C }
  - { offsetInCU: 0x1F, offset: 0xBA401, size: 0x8, addend: 0x0, symName: ___rust_panic_cleanup, symObjAddr: 0x6DD28, symBinAddr: 0x6EC28, symSize: 0x20 }
  - { offsetInCU: 0x27, offset: 0xBA409, size: 0x8, addend: 0x0, symName: '__ZN81_$LT$core..str..pattern..CharSearcher$u20$as$u20$core..str..pattern..Searcher$GT$10next_match17h783d6cd0529b226dE', symObjAddr: 0x6DD60, symBinAddr: 0x6EC60, symSize: 0x208 }
  - { offsetInCU: 0x37, offset: 0xBA419, size: 0x8, addend: 0x0, symName: ___rust_panic_cleanup, symObjAddr: 0x6DD28, symBinAddr: 0x6EC28, symSize: 0x20 }
  - { offsetInCU: 0x3F, offset: 0xBA421, size: 0x8, addend: 0x0, symName: ___rust_start_panic, symObjAddr: 0x6DD48, symBinAddr: 0x6EC48, symSize: 0xC }
  - { offsetInCU: 0x54, offset: 0xBA436, size: 0x8, addend: 0x0, symName: ___rust_start_panic, symObjAddr: 0x6DD48, symBinAddr: 0x6EC48, symSize: 0xC }
  - { offsetInCU: 0x5C, offset: 0xBA43E, size: 0x8, addend: 0x0, symName: __ZN11panic_abort18__rust_start_panic5abort17h00be8924da5b7461E, symObjAddr: 0x6DD54, symBinAddr: 0x6EC54, symSize: 0xC }
  - { offsetInCU: 0x77, offset: 0xBA459, size: 0x8, addend: 0x0, symName: __ZN11panic_abort18__rust_start_panic5abort17h00be8924da5b7461E, symObjAddr: 0x6DD54, symBinAddr: 0x6EC54, symSize: 0xC }
  - { offsetInCU: 0x7F, offset: 0xBA461, size: 0x8, addend: 0x0, symName: '__ZN81_$LT$core..str..pattern..CharSearcher$u20$as$u20$core..str..pattern..Searcher$GT$10next_match17h783d6cd0529b226dE', symObjAddr: 0x6DD60, symBinAddr: 0x6EC60, symSize: 0x208 }
  - { offsetInCU: 0x1F, offset: 0xBA49A, size: 0x8, addend: 0x0, symName: '__ZN81_$LT$core..str..pattern..CharSearcher$u20$as$u20$core..str..pattern..Searcher$GT$10next_match17h783d6cd0529b226dE', symObjAddr: 0x6DD60, symBinAddr: 0x6EC60, symSize: 0x208 }
  - { offsetInCU: 0x27, offset: 0xBA4A2, size: 0x8, addend: 0x0, symName: __ZN3ryu6pretty8mantissa19write_mantissa_long17hcc2f985f4dae6d14E, symObjAddr: 0x7481C, symBinAddr: 0x7571C, symSize: 0x170 }
  - { offsetInCU: 0x3BE, offset: 0xBA839, size: 0x8, addend: 0x0, symName: '__ZN81_$LT$core..str..pattern..CharSearcher$u20$as$u20$core..str..pattern..Searcher$GT$10next_match17h783d6cd0529b226dE', symObjAddr: 0x6DD60, symBinAddr: 0x6EC60, symSize: 0x208 }
  - { offsetInCU: 0x3C6, offset: 0xBA841, size: 0x8, addend: 0x0, symName: __ZN14rustc_demangle2v07Printer10print_path17h02b6e8e19705ed78E, symObjAddr: 0x6DF68, symBinAddr: 0x6EE68, symSize: 0x734 }
  - { offsetInCU: 0x568, offset: 0xBA9E3, size: 0x8, addend: 0x0, symName: '__ZN80_$LT$core..str..pattern..StrSearcher$u20$as$u20$core..str..pattern..Searcher$GT$4next17hd8200db028b7d20fE', symObjAddr: 0x71A8C, symBinAddr: 0x7298C, symSize: 0x378 }
  - { offsetInCU: 0x570, offset: 0xBA9EB, size: 0x8, addend: 0x0, symName: '__ZN104_$LT$core..iter..sources..from_fn..FromFn$LT$F$GT$$u20$as$u20$core..iter..traits..iterator..Iterator$GT$4next17h2ced44b006cc6d24E', symObjAddr: 0x71E04, symBinAddr: 0x72D04, symSize: 0x440 }
  - { offsetInCU: 0xB3D, offset: 0xBAFB8, size: 0x8, addend: 0x0, symName: '__ZN4core3str6traits110_$LT$impl$u20$core..slice..index..SliceIndex$LT$str$GT$$u20$for$u20$core..ops..range..RangeTo$LT$usize$GT$$GT$5index17he054a56be042f1e2E', symObjAddr: 0x6F610, symBinAddr: 0x70510, symSize: 0x50 }
  - { offsetInCU: 0xB45, offset: 0xBAFC0, size: 0x8, addend: 0x0, symName: '__ZN4core3str6traits112_$LT$impl$u20$core..slice..index..SliceIndex$LT$str$GT$$u20$for$u20$core..ops..range..RangeFrom$LT$usize$GT$$GT$5index17h8a771fe68a6a1625E', symObjAddr: 0x6F660, symBinAddr: 0x70560, symSize: 0x50 }
  - { offsetInCU: 0xBB4, offset: 0xBB02F, size: 0x8, addend: 0x0, symName: '__ZN4core3str6traits112_$LT$impl$u20$core..slice..index..SliceIndex$LT$str$GT$$u20$for$u20$core..ops..range..RangeFrom$LT$usize$GT$$GT$5index17h8a771fe68a6a1625E', symObjAddr: 0x6F660, symBinAddr: 0x70560, symSize: 0x50 }
  - { offsetInCU: 0xBBC, offset: 0xBB037, size: 0x8, addend: 0x0, symName: __ZN14rustc_demangle2v07Printer9in_binder17hfa16e6408daf5149E, symObjAddr: 0x6F6B0, symBinAddr: 0x705B0, symSize: 0x234 }
  - { offsetInCU: 0xE51, offset: 0xBB2CC, size: 0x8, addend: 0x0, symName: __ZN4core3str5count11count_chars17h1989afdd85b1124dE, symObjAddr: 0x72258, symBinAddr: 0x73158, symSize: 0x1F4 }
  - { offsetInCU: 0xE59, offset: 0xBB2D4, size: 0x8, addend: 0x0, symName: '__ZN50_$LT$$RF$mut$u20$T$u20$as$u20$core..fmt..Debug$GT$3fmt17h67094faf2ad51d2eE', symObjAddr: 0x7244C, symBinAddr: 0x7334C, symSize: 0xB0 }
  - { offsetInCU: 0xF67, offset: 0xBB3E2, size: 0x8, addend: 0x0, symName: '__ZN44_$LT$$RF$T$u20$as$u20$core..fmt..Display$GT$3fmt17h958c0c4666aa36e7E', symObjAddr: 0x73A3C, symBinAddr: 0x7493C, symSize: 0xC50 }
  - { offsetInCU: 0xF6F, offset: 0xBB3EA, size: 0x8, addend: 0x0, symName: '__ZN71_$LT$rustc_demangle..SizeLimitExhausted$u20$as$u20$core..fmt..Debug$GT$3fmt17h8e3b263c5d9c0de2E', symObjAddr: 0x7468C, symBinAddr: 0x7558C, symSize: 0x18 }
  - { offsetInCU: 0x2A59, offset: 0xBCED4, size: 0x8, addend: 0x0, symName: '__ZN50_$LT$$RF$mut$u20$W$u20$as$u20$core..fmt..Write$GT$9write_str17ha148bc474eb8cbaaE', symObjAddr: 0x746A4, symBinAddr: 0x755A4, symSize: 0x38 }
  - { offsetInCU: 0x2A61, offset: 0xBCEDC, size: 0x8, addend: 0x0, symName: '__ZN50_$LT$$RF$mut$u20$W$u20$as$u20$core..fmt..Write$GT$10write_char17h70e6a01a58999e7cE', symObjAddr: 0x746DC, symBinAddr: 0x755DC, symSize: 0xFC }
  - { offsetInCU: 0x2AAB, offset: 0xBCF26, size: 0x8, addend: 0x0, symName: '__ZN50_$LT$$RF$mut$u20$W$u20$as$u20$core..fmt..Write$GT$10write_char17h70e6a01a58999e7cE', symObjAddr: 0x746DC, symBinAddr: 0x755DC, symSize: 0xFC }
  - { offsetInCU: 0x2AC8, offset: 0xBCF43, size: 0x8, addend: 0x0, symName: '__ZN50_$LT$$RF$mut$u20$W$u20$as$u20$core..fmt..Write$GT$10write_char17h70e6a01a58999e7cE', symObjAddr: 0x746DC, symBinAddr: 0x755DC, symSize: 0xFC }
  - { offsetInCU: 0x2AD8, offset: 0xBCF53, size: 0x8, addend: 0x0, symName: '__ZN50_$LT$$RF$mut$u20$W$u20$as$u20$core..fmt..Write$GT$10write_char17h70e6a01a58999e7cE', symObjAddr: 0x746DC, symBinAddr: 0x755DC, symSize: 0xFC }
  - { offsetInCU: 0x2AE0, offset: 0xBCF5B, size: 0x8, addend: 0x0, symName: '__ZN50_$LT$$RF$mut$u20$W$u20$as$u20$core..fmt..Write$GT$9write_fmt17h67d5ae9f8b886c6aE', symObjAddr: 0x747D8, symBinAddr: 0x756D8, symSize: 0x44 }
  - { offsetInCU: 0x2BBF, offset: 0xBD03A, size: 0x8, addend: 0x0, symName: '__ZN50_$LT$$RF$mut$u20$W$u20$as$u20$core..fmt..Write$GT$9write_fmt17h67d5ae9f8b886c6aE', symObjAddr: 0x747D8, symBinAddr: 0x756D8, symSize: 0x44 }
  - { offsetInCU: 0x2BC7, offset: 0xBD042, size: 0x8, addend: 0x0, symName: __ZN3ryu6pretty8mantissa19write_mantissa_long17hcc2f985f4dae6d14E, symObjAddr: 0x7481C, symBinAddr: 0x7571C, symSize: 0x170 }
  - { offsetInCU: 0x2C15, offset: 0xBD090, size: 0x8, addend: 0x0, symName: '__ZN45_$LT$$LP$$RP$$u20$as$u20$core..fmt..Debug$GT$3fmt17he444be7f6fdd9f6dE', symObjAddr: 0x72244, symBinAddr: 0x73144, symSize: 0x14 }
  - { offsetInCU: 0x2C1D, offset: 0xBD098, size: 0x8, addend: 0x0, symName: __ZN4core3str5count11count_chars17h1989afdd85b1124dE, symObjAddr: 0x72258, symBinAddr: 0x73158, symSize: 0x1F4 }
  - { offsetInCU: 0x2C70, offset: 0xBD0EB, size: 0x8, addend: 0x0, symName: '__ZN50_$LT$$RF$mut$u20$T$u20$as$u20$core..fmt..Debug$GT$3fmt17h67094faf2ad51d2eE', symObjAddr: 0x7244C, symBinAddr: 0x7334C, symSize: 0xB0 }
  - { offsetInCU: 0x2C78, offset: 0xBD0F3, size: 0x8, addend: 0x0, symName: '__ZN42_$LT$$RF$T$u20$as$u20$core..fmt..Debug$GT$3fmt17h799dbeb1f1d43deeE', symObjAddr: 0x724FC, symBinAddr: 0x733FC, symSize: 0x14 }
  - { offsetInCU: 0x2DF6, offset: 0xBD271, size: 0x8, addend: 0x0, symName: '__ZN42_$LT$$RF$T$u20$as$u20$core..fmt..Debug$GT$3fmt17h799dbeb1f1d43deeE', symObjAddr: 0x724FC, symBinAddr: 0x733FC, symSize: 0x14 }
  - { offsetInCU: 0x2DFE, offset: 0xBD279, size: 0x8, addend: 0x0, symName: __ZN14rustc_demangle2v07Printer15print_dyn_trait17he51fe99a9d770a1eE, symObjAddr: 0x72510, symBinAddr: 0x73410, symSize: 0x1DC }
  - { offsetInCU: 0x3A03, offset: 0xBDE7E, size: 0x8, addend: 0x0, symName: '__ZN104_$LT$core..iter..sources..from_fn..FromFn$LT$F$GT$$u20$as$u20$core..iter..traits..iterator..Iterator$GT$4next17h2ced44b006cc6d24E', symObjAddr: 0x71E04, symBinAddr: 0x72D04, symSize: 0x440 }
  - { offsetInCU: 0x3A0B, offset: 0xBDE86, size: 0x8, addend: 0x0, symName: '__ZN45_$LT$$LP$$RP$$u20$as$u20$core..fmt..Debug$GT$3fmt17he444be7f6fdd9f6dE', symObjAddr: 0x72244, symBinAddr: 0x73144, symSize: 0x14 }
  - { offsetInCU: 0x4231, offset: 0xBE6AC, size: 0x8, addend: 0x0, symName: __ZN14rustc_demangle2v06Parser9namespace17hfa00318cae7281d2E, symObjAddr: 0x6EDCC, symBinAddr: 0x6FCCC, symSize: 0x60 }
  - { offsetInCU: 0x4239, offset: 0xBE6B4, size: 0x8, addend: 0x0, symName: __ZN14rustc_demangle2v06Parser13disambiguator17h82f65d7d23ea85b1E, symObjAddr: 0x6EE2C, symBinAddr: 0x6FD2C, symSize: 0x110 }
  - { offsetInCU: 0x4256, offset: 0xBE6D1, size: 0x8, addend: 0x0, symName: __ZN14rustc_demangle2v06Parser9namespace17hfa00318cae7281d2E, symObjAddr: 0x6EDCC, symBinAddr: 0x6FCCC, symSize: 0x60 }
  - { offsetInCU: 0x4270, offset: 0xBE6EB, size: 0x8, addend: 0x0, symName: __ZN14rustc_demangle2v06Parser9namespace17hfa00318cae7281d2E, symObjAddr: 0x6EDCC, symBinAddr: 0x6FCCC, symSize: 0x60 }
  - { offsetInCU: 0x4297, offset: 0xBE712, size: 0x8, addend: 0x0, symName: __ZN14rustc_demangle2v06Parser13disambiguator17h82f65d7d23ea85b1E, symObjAddr: 0x6EE2C, symBinAddr: 0x6FD2C, symSize: 0x110 }
  - { offsetInCU: 0x429F, offset: 0xBE71A, size: 0x8, addend: 0x0, symName: __ZN14rustc_demangle2v06Parser5ident17h59527ccd1587da4bE, symObjAddr: 0x6EF3C, symBinAddr: 0x6FE3C, symSize: 0x224 }
  - { offsetInCU: 0x42C2, offset: 0xBE73D, size: 0x8, addend: 0x0, symName: __ZN14rustc_demangle2v06Parser13disambiguator17h82f65d7d23ea85b1E, symObjAddr: 0x6EE2C, symBinAddr: 0x6FD2C, symSize: 0x110 }
  - { offsetInCU: 0x42DC, offset: 0xBE757, size: 0x8, addend: 0x0, symName: __ZN14rustc_demangle2v06Parser13disambiguator17h82f65d7d23ea85b1E, symObjAddr: 0x6EE2C, symBinAddr: 0x6FD2C, symSize: 0x110 }
  - { offsetInCU: 0x44DD, offset: 0xBE958, size: 0x8, addend: 0x0, symName: __ZN14rustc_demangle2v06Parser5ident17h59527ccd1587da4bE, symObjAddr: 0x6EF3C, symBinAddr: 0x6FE3C, symSize: 0x224 }
  - { offsetInCU: 0x44E5, offset: 0xBE960, size: 0x8, addend: 0x0, symName: '__ZN64_$LT$rustc_demangle..v0..Ident$u20$as$u20$core..fmt..Display$GT$3fmt17h3b392f5775ce592fE', symObjAddr: 0x6F160, symBinAddr: 0x70060, symSize: 0x4B0 }
  - { offsetInCU: 0x4930, offset: 0xBEDAB, size: 0x8, addend: 0x0, symName: __ZN14rustc_demangle2v06Parser10integer_6217h08c5e1cab41661a8E, symObjAddr: 0x6FDA4, symBinAddr: 0x70CA4, symSize: 0xE8 }
  - { offsetInCU: 0x4938, offset: 0xBEDB3, size: 0x8, addend: 0x0, symName: __ZN14rustc_demangle2v07Printer25print_lifetime_from_index17hae591f65c5ac712dE, symObjAddr: 0x6FE8C, symBinAddr: 0x70D8C, symSize: 0x234 }
  - { offsetInCU: 0x494D, offset: 0xBEDC8, size: 0x8, addend: 0x0, symName: __ZN14rustc_demangle2v06Parser10integer_6217h08c5e1cab41661a8E, symObjAddr: 0x6FDA4, symBinAddr: 0x70CA4, symSize: 0xE8 }
  - { offsetInCU: 0x4967, offset: 0xBEDE2, size: 0x8, addend: 0x0, symName: __ZN14rustc_demangle2v06Parser10integer_6217h08c5e1cab41661a8E, symObjAddr: 0x6FDA4, symBinAddr: 0x70CA4, symSize: 0xE8 }
  - { offsetInCU: 0x4A90, offset: 0xBEF0B, size: 0x8, addend: 0x0, symName: __ZN14rustc_demangle2v06Parser11hex_nibbles17h846df12c8d35b69fE, symObjAddr: 0x714E0, symBinAddr: 0x723E0, symSize: 0xA4 }
  - { offsetInCU: 0x4A98, offset: 0xBEF13, size: 0x8, addend: 0x0, symName: __ZN14rustc_demangle2v010HexNibbles14try_parse_uint17h102fc9f8c885938bE, symObjAddr: 0x71584, symBinAddr: 0x72484, symSize: 0x19C }
  - { offsetInCU: 0x4BEC, offset: 0xBF067, size: 0x8, addend: 0x0, symName: __ZN14rustc_demangle2v07Printer10print_path17h02b6e8e19705ed78E, symObjAddr: 0x6DF68, symBinAddr: 0x6EE68, symSize: 0x734 }
  - { offsetInCU: 0x4BF4, offset: 0xBF06F, size: 0x8, addend: 0x0, symName: __ZN14rustc_demangle2v07Printer13print_backref17h2a43c19a79e80bd9E, symObjAddr: 0x6E69C, symBinAddr: 0x6F59C, symSize: 0x1D0 }
  - { offsetInCU: 0x55BB, offset: 0xBFA36, size: 0x8, addend: 0x0, symName: __ZN14rustc_demangle2v07Printer13print_backref17h2a43c19a79e80bd9E, symObjAddr: 0x6E69C, symBinAddr: 0x6F59C, symSize: 0x1D0 }
  - { offsetInCU: 0x55C3, offset: 0xBFA3E, size: 0x8, addend: 0x0, symName: __ZN14rustc_demangle2v07Printer14print_sep_list17h8ca71c6a248f9a01E, symObjAddr: 0x6E86C, symBinAddr: 0x6F76C, symSize: 0xA0 }
  - { offsetInCU: 0x58D5, offset: 0xBFD50, size: 0x8, addend: 0x0, symName: __ZN14rustc_demangle2v07Printer14print_sep_list17h8ca71c6a248f9a01E, symObjAddr: 0x6E86C, symBinAddr: 0x6F76C, symSize: 0xA0 }
  - { offsetInCU: 0x58DD, offset: 0xBFD58, size: 0x8, addend: 0x0, symName: __ZN14rustc_demangle2v07Printer10print_type17hd371f262bf5506b5E, symObjAddr: 0x6E90C, symBinAddr: 0x6F80C, symSize: 0x4C0 }
  - { offsetInCU: 0x5A0F, offset: 0xBFE8A, size: 0x8, addend: 0x0, symName: __ZN14rustc_demangle2v07Printer10print_type17hd371f262bf5506b5E, symObjAddr: 0x6E90C, symBinAddr: 0x6F80C, symSize: 0x4C0 }
  - { offsetInCU: 0x5A17, offset: 0xBFE92, size: 0x8, addend: 0x0, symName: __ZN14rustc_demangle2v06Parser9namespace17hfa00318cae7281d2E, symObjAddr: 0x6EDCC, symBinAddr: 0x6FCCC, symSize: 0x60 }
  - { offsetInCU: 0x61F1, offset: 0xC066C, size: 0x8, addend: 0x0, symName: __ZN14rustc_demangle2v07Printer9in_binder17hfa16e6408daf5149E, symObjAddr: 0x6F6B0, symBinAddr: 0x705B0, symSize: 0x234 }
  - { offsetInCU: 0x61F9, offset: 0xC0674, size: 0x8, addend: 0x0, symName: __ZN14rustc_demangle2v07Printer13print_backref17h1a1fb5611b3144dcE, symObjAddr: 0x6F8E4, symBinAddr: 0x707E4, symSize: 0x1C8 }
  - { offsetInCU: 0x66BE, offset: 0xC0B39, size: 0x8, addend: 0x0, symName: __ZN14rustc_demangle2v07Printer13print_backref17h1a1fb5611b3144dcE, symObjAddr: 0x6F8E4, symBinAddr: 0x707E4, symSize: 0x1C8 }
  - { offsetInCU: 0x66C6, offset: 0xC0B41, size: 0x8, addend: 0x0, symName: __ZN14rustc_demangle2v07Printer9in_binder17h18893918e0698718E, symObjAddr: 0x6FAAC, symBinAddr: 0x709AC, symSize: 0x2F8 }
  - { offsetInCU: 0x69D9, offset: 0xC0E54, size: 0x8, addend: 0x0, symName: __ZN14rustc_demangle2v07Printer9in_binder17h18893918e0698718E, symObjAddr: 0x6FAAC, symBinAddr: 0x709AC, symSize: 0x2F8 }
  - { offsetInCU: 0x69E1, offset: 0xC0E5C, size: 0x8, addend: 0x0, symName: __ZN14rustc_demangle2v06Parser10integer_6217h08c5e1cab41661a8E, symObjAddr: 0x6FDA4, symBinAddr: 0x70CA4, symSize: 0xE8 }
  - { offsetInCU: 0x7130, offset: 0xC15AB, size: 0x8, addend: 0x0, symName: __ZN14rustc_demangle2v07Printer25print_lifetime_from_index17hae591f65c5ac712dE, symObjAddr: 0x6FE8C, symBinAddr: 0x70D8C, symSize: 0x234 }
  - { offsetInCU: 0x7138, offset: 0xC15B3, size: 0x8, addend: 0x0, symName: __ZN14rustc_demangle2v07Printer14print_sep_list17he1620655f3a25c5aE, symObjAddr: 0x700C0, symBinAddr: 0x70FC0, symSize: 0xB0 }
  - { offsetInCU: 0x7330, offset: 0xC17AB, size: 0x8, addend: 0x0, symName: __ZN14rustc_demangle2v07Printer14print_sep_list17he1620655f3a25c5aE, symObjAddr: 0x700C0, symBinAddr: 0x70FC0, symSize: 0xB0 }
  - { offsetInCU: 0x734E, offset: 0xC17C9, size: 0x8, addend: 0x0, symName: __ZN14rustc_demangle2v07Printer14print_sep_list17he1620655f3a25c5aE, symObjAddr: 0x700C0, symBinAddr: 0x70FC0, symSize: 0xB0 }
  - { offsetInCU: 0x736C, offset: 0xC17E7, size: 0x8, addend: 0x0, symName: __ZN14rustc_demangle2v07Printer14print_sep_list17he1620655f3a25c5aE, symObjAddr: 0x700C0, symBinAddr: 0x70FC0, symSize: 0xB0 }
  - { offsetInCU: 0x74E6, offset: 0xC1961, size: 0x8, addend: 0x0, symName: __ZN14rustc_demangle2v07Printer14print_sep_list17he1620655f3a25c5aE, symObjAddr: 0x700C0, symBinAddr: 0x70FC0, symSize: 0xB0 }
  - { offsetInCU: 0x74EE, offset: 0xC1969, size: 0x8, addend: 0x0, symName: __ZN14rustc_demangle2v07Printer11print_const17hdc4422008a1cecafE, symObjAddr: 0x70170, symBinAddr: 0x71070, symSize: 0x6B0 }
  - { offsetInCU: 0x7620, offset: 0xC1A9B, size: 0x8, addend: 0x0, symName: __ZN14rustc_demangle2v07Printer11print_const17hdc4422008a1cecafE, symObjAddr: 0x70170, symBinAddr: 0x71070, symSize: 0x6B0 }
  - { offsetInCU: 0x7628, offset: 0xC1AA3, size: 0x8, addend: 0x0, symName: __ZN14rustc_demangle2v07Printer16print_const_uint17h750658f7780de0deE, symObjAddr: 0x70820, symBinAddr: 0x71720, symSize: 0x300 }
  - { offsetInCU: 0x8068, offset: 0xC24E3, size: 0x8, addend: 0x0, symName: __ZN14rustc_demangle2v07Printer16print_const_uint17h750658f7780de0deE, symObjAddr: 0x70820, symBinAddr: 0x71720, symSize: 0x300 }
  - { offsetInCU: 0x8070, offset: 0xC24EB, size: 0x8, addend: 0x0, symName: __ZN14rustc_demangle2v07Printer13print_backref17h2a0274ae543da294E, symObjAddr: 0x70B20, symBinAddr: 0x71A20, symSize: 0x1D0 }
  - { offsetInCU: 0x84E0, offset: 0xC295B, size: 0x8, addend: 0x0, symName: __ZN14rustc_demangle2v07Printer13print_backref17h2a0274ae543da294E, symObjAddr: 0x70B20, symBinAddr: 0x71A20, symSize: 0x1D0 }
  - { offsetInCU: 0x84EF, offset: 0xC296A, size: 0x8, addend: 0x0, symName: __ZN14rustc_demangle2v07Printer13print_backref17h2a0274ae543da294E, symObjAddr: 0x70B20, symBinAddr: 0x71A20, symSize: 0x1D0 }
  - { offsetInCU: 0x84F7, offset: 0xC2972, size: 0x8, addend: 0x0, symName: __ZN14rustc_demangle2v07Printer14print_sep_list17h37bd05b9e167b860E, symObjAddr: 0x70CF0, symBinAddr: 0x71BF0, symSize: 0x298 }
  - { offsetInCU: 0x87FA, offset: 0xC2C75, size: 0x8, addend: 0x0, symName: __ZN14rustc_demangle2v07Printer14print_sep_list17h37bd05b9e167b860E, symObjAddr: 0x70CF0, symBinAddr: 0x71BF0, symSize: 0x298 }
  - { offsetInCU: 0x8802, offset: 0xC2C7D, size: 0x8, addend: 0x0, symName: __ZN14rustc_demangle2v07Printer14print_sep_list17h290d07816bd576d7E, symObjAddr: 0x70F88, symBinAddr: 0x71E88, symSize: 0xA4 }
  - { offsetInCU: 0x8C79, offset: 0xC30F4, size: 0x8, addend: 0x0, symName: __ZN14rustc_demangle2v07Printer14print_sep_list17h290d07816bd576d7E, symObjAddr: 0x70F88, symBinAddr: 0x71E88, symSize: 0xA4 }
  - { offsetInCU: 0x8C81, offset: 0xC30FC, size: 0x8, addend: 0x0, symName: __ZN14rustc_demangle2v07Printer14print_sep_list17h71e91c6553e29a8fE, symObjAddr: 0x7102C, symBinAddr: 0x71F2C, symSize: 0xB4 }
  - { offsetInCU: 0x8DBC, offset: 0xC3237, size: 0x8, addend: 0x0, symName: __ZN14rustc_demangle2v07Printer14print_sep_list17h71e91c6553e29a8fE, symObjAddr: 0x7102C, symBinAddr: 0x71F2C, symSize: 0xB4 }
  - { offsetInCU: 0x8DC4, offset: 0xC323F, size: 0x8, addend: 0x0, symName: __ZN14rustc_demangle2v07Printer23print_const_str_literal17hc158cec4362aa66bE, symObjAddr: 0x710E0, symBinAddr: 0x71FE0, symSize: 0x400 }
  - { offsetInCU: 0x8F0F, offset: 0xC338A, size: 0x8, addend: 0x0, symName: __ZN14rustc_demangle2v07Printer23print_const_str_literal17hc158cec4362aa66bE, symObjAddr: 0x710E0, symBinAddr: 0x71FE0, symSize: 0x400 }
  - { offsetInCU: 0x8F17, offset: 0xC3392, size: 0x8, addend: 0x0, symName: __ZN14rustc_demangle2v06Parser11hex_nibbles17h846df12c8d35b69fE, symObjAddr: 0x714E0, symBinAddr: 0x723E0, symSize: 0xA4 }
  - { offsetInCU: 0x937C, offset: 0xC37F7, size: 0x8, addend: 0x0, symName: __ZN14rustc_demangle2v07Printer26print_quoted_escaped_chars17hd7f91581c37dd75aE, symObjAddr: 0x71720, symBinAddr: 0x72620, symSize: 0x36C }
  - { offsetInCU: 0x9384, offset: 0xC37FF, size: 0x8, addend: 0x0, symName: '__ZN80_$LT$core..str..pattern..StrSearcher$u20$as$u20$core..str..pattern..Searcher$GT$4next17hd8200db028b7d20fE', symObjAddr: 0x71A8C, symBinAddr: 0x7298C, symSize: 0x378 }
  - { offsetInCU: 0x9533, offset: 0xC39AE, size: 0x8, addend: 0x0, symName: '__ZN80_$LT$core..str..pattern..StrSearcher$u20$as$u20$core..str..pattern..Searcher$GT$4next17hd8200db028b7d20fE', symObjAddr: 0x71A8C, symBinAddr: 0x7298C, symSize: 0x378 }
  - { offsetInCU: 0x9551, offset: 0xC39CC, size: 0x8, addend: 0x0, symName: '__ZN80_$LT$core..str..pattern..StrSearcher$u20$as$u20$core..str..pattern..Searcher$GT$4next17hd8200db028b7d20fE', symObjAddr: 0x71A8C, symBinAddr: 0x7298C, symSize: 0x378 }
  - { offsetInCU: 0x9560, offset: 0xC39DB, size: 0x8, addend: 0x0, symName: __ZN14rustc_demangle2v07Printer15print_dyn_trait17he51fe99a9d770a1eE, symObjAddr: 0x72510, symBinAddr: 0x73410, symSize: 0x1DC }
  - { offsetInCU: 0x9568, offset: 0xC39E3, size: 0x8, addend: 0x0, symName: __ZN14rustc_demangle2v07Printer30print_path_maybe_open_generics17h46565a4b00fc4851E, symObjAddr: 0x726EC, symBinAddr: 0x735EC, symSize: 0x294 }
  - { offsetInCU: 0x9863, offset: 0xC3CDE, size: 0x8, addend: 0x0, symName: __ZN14rustc_demangle2v07Printer30print_path_maybe_open_generics17h46565a4b00fc4851E, symObjAddr: 0x726EC, symBinAddr: 0x735EC, symSize: 0x294 }
  - { offsetInCU: 0x986B, offset: 0xC3CE6, size: 0x8, addend: 0x0, symName: __ZN14rustc_demangle2v07Printer17print_generic_arg17hbc7a1949ef7f472aE, symObjAddr: 0x72980, symBinAddr: 0x73880, symSize: 0x168 }
  - { offsetInCU: 0x9E20, offset: 0xC429B, size: 0x8, addend: 0x0, symName: __ZN14rustc_demangle2v07Printer17print_generic_arg17hbc7a1949ef7f472aE, symObjAddr: 0x72980, symBinAddr: 0x73880, symSize: 0x168 }
  - { offsetInCU: 0x9E28, offset: 0xC42A3, size: 0x8, addend: 0x0, symName: '__ZN14rustc_demangle2v07Printer10print_type28_$u7b$$u7b$closure$u7d$$u7d$17h4811b5f5d7cad626E', symObjAddr: 0x72AE8, symBinAddr: 0x739E8, symSize: 0x47C }
  - { offsetInCU: 0xA1D0, offset: 0xC464B, size: 0x8, addend: 0x0, symName: '__ZN14rustc_demangle2v07Printer10print_type28_$u7b$$u7b$closure$u7d$$u7d$17h4811b5f5d7cad626E', symObjAddr: 0x72AE8, symBinAddr: 0x739E8, symSize: 0x47C }
  - { offsetInCU: 0xA1D8, offset: 0xC4653, size: 0x8, addend: 0x0, symName: __ZN14rustc_demangle12try_demangle17h1e654a2b8c88c113E, symObjAddr: 0x72F64, symBinAddr: 0x73E64, symSize: 0xAD8 }
  - { offsetInCU: 0xAC66, offset: 0xC50E1, size: 0x8, addend: 0x0, symName: '__ZN64_$LT$rustc_demangle..v0..Ident$u20$as$u20$core..fmt..Display$GT$3fmt17h3b392f5775ce592fE', symObjAddr: 0x6F160, symBinAddr: 0x70060, symSize: 0x4B0 }
  - { offsetInCU: 0xAC6E, offset: 0xC50E9, size: 0x8, addend: 0x0, symName: '__ZN4core3str6traits110_$LT$impl$u20$core..slice..index..SliceIndex$LT$str$GT$$u20$for$u20$core..ops..range..RangeTo$LT$usize$GT$$GT$5index17he054a56be042f1e2E', symObjAddr: 0x6F610, symBinAddr: 0x70510, symSize: 0x50 }
  - { offsetInCU: 0xB284, offset: 0xC56FF, size: 0x8, addend: 0x0, symName: __ZN14rustc_demangle2v010HexNibbles14try_parse_uint17h102fc9f8c885938bE, symObjAddr: 0x71584, symBinAddr: 0x72484, symSize: 0x19C }
  - { offsetInCU: 0xB28C, offset: 0xC5707, size: 0x8, addend: 0x0, symName: __ZN14rustc_demangle2v07Printer26print_quoted_escaped_chars17hd7f91581c37dd75aE, symObjAddr: 0x71720, symBinAddr: 0x72620, symSize: 0x36C }
  - { offsetInCU: 0xB418, offset: 0xC5893, size: 0x8, addend: 0x0, symName: __ZN14rustc_demangle2v07Printer26print_quoted_escaped_chars17hd7f91581c37dd75aE, symObjAddr: 0x71720, symBinAddr: 0x72620, symSize: 0x36C }
  - { offsetInCU: 0xB5A0, offset: 0xC5A1B, size: 0x8, addend: 0x0, symName: __ZN14rustc_demangle12try_demangle17h1e654a2b8c88c113E, symObjAddr: 0x72F64, symBinAddr: 0x73E64, symSize: 0xAD8 }
  - { offsetInCU: 0xB5A8, offset: 0xC5A23, size: 0x8, addend: 0x0, symName: '__ZN44_$LT$$RF$T$u20$as$u20$core..fmt..Display$GT$3fmt17h958c0c4666aa36e7E', symObjAddr: 0x73A3C, symBinAddr: 0x7493C, symSize: 0xC50 }
  - { offsetInCU: 0xC77D, offset: 0xC6BF8, size: 0x8, addend: 0x0, symName: '__ZN71_$LT$rustc_demangle..SizeLimitExhausted$u20$as$u20$core..fmt..Debug$GT$3fmt17h8e3b263c5d9c0de2E', symObjAddr: 0x7468C, symBinAddr: 0x7558C, symSize: 0x18 }
  - { offsetInCU: 0xC785, offset: 0xC6C00, size: 0x8, addend: 0x0, symName: '__ZN50_$LT$$RF$mut$u20$W$u20$as$u20$core..fmt..Write$GT$9write_str17ha148bc474eb8cbaaE', symObjAddr: 0x746A4, symBinAddr: 0x755A4, symSize: 0x38 }
  - { offsetInCU: 0xC7A6, offset: 0xC6C21, size: 0x8, addend: 0x0, symName: '__ZN71_$LT$rustc_demangle..SizeLimitExhausted$u20$as$u20$core..fmt..Debug$GT$3fmt17h8e3b263c5d9c0de2E', symObjAddr: 0x7468C, symBinAddr: 0x7558C, symSize: 0x18 }
  - { offsetInCU: 0xC7AE, offset: 0xC6C29, size: 0x8, addend: 0x0, symName: '__ZN50_$LT$$RF$mut$u20$W$u20$as$u20$core..fmt..Write$GT$9write_str17ha148bc474eb8cbaaE', symObjAddr: 0x746A4, symBinAddr: 0x755A4, symSize: 0x38 }
...
